

Microchip MPLAB XC8 Assembler V2.45 build 20230818022343 
                                                                                               Sat May 11 21:07:07 2024

Microchip MPLAB XC8 C Compiler v2.45 (Free license) build 20230818022343 Og1 
     1                           	processor	18F4620
     2                           	fnconf	rparam,??,?,0
     3                           	pagewidth 120
     4                           	opt	flic
     5                           	psect	idataCOMRAM,global,class=CODE,delta=1,noexec
     6                           	psect	idataBANK0,global,class=CODE,delta=1,noexec
     7                           	psect	smallconst,global,reloc=2,class=SMALLCONST,delta=1,noexec
     8                           	psect	cinit,global,reloc=2,class=CODE,delta=1
     9                           	psect	bssCOMRAM,global,class=COMRAM,space=1,delta=1,lowdata,noexec
    10                           	psect	dataCOMRAM,global,class=COMRAM,space=1,delta=1,lowdata,noexec
    11                           	psect	bssBANK0,global,class=BANK0,space=1,delta=1,lowdata,noexec
    12                           	psect	dataBANK0,global,class=BANK0,space=1,delta=1,lowdata,noexec
    13                           	psect	cstackBANK0,global,class=BANK0,space=1,delta=1,lowdata,noexec
    14                           	psect	cstackCOMRAM,global,class=COMRAM,space=1,delta=1,lowdata,noexec
    15                           	psect	text0,global,reloc=2,class=CODE,delta=1
    16                           	psect	text1,global,reloc=2,class=CODE,delta=1
    17                           	psect	text2,global,reloc=2,class=CODE,delta=1
    18                           	psect	text3,global,reloc=2,class=CODE,delta=1
    19                           	psect	text4,global,reloc=2,class=CODE,delta=1
    20                           	psect	text5,global,reloc=2,class=CODE,delta=1
    21                           	psect	text6,global,reloc=2,class=CODE,delta=1
    22                           	psect	text7,global,reloc=2,class=CODE,delta=1
    23                           	psect	text8,global,reloc=2,class=CODE,delta=1
    24                           	psect	text9,global,reloc=2,class=CODE,delta=1
    25                           	psect	text10,global,reloc=2,class=CODE,delta=1
    26                           	psect	text11,global,reloc=2,class=CODE,delta=1
    27                           	psect	text12,global,reloc=2,class=CODE,delta=1
    28                           	psect	text13,global,reloc=2,class=CODE,delta=1,group=3
    29                           	psect	text14,global,reloc=2,class=CODE,delta=1,group=1
    30                           	psect	text15,global,reloc=2,class=CODE,delta=1,group=1
    31                           	psect	text16,global,reloc=2,class=CODE,delta=1,group=3
    32                           	psect	text17,global,reloc=2,class=CODE,delta=1,group=3
    33                           	psect	text18,global,reloc=2,class=CODE,delta=1,group=3
    34                           	psect	text19,global,reloc=2,class=CODE,delta=1,group=2
    35                           	psect	text20,global,reloc=2,class=CODE,delta=1,group=2
    36                           	psect	text21,global,reloc=2,class=CODE,delta=1,group=3
    37                           	psect	text22,global,reloc=2,class=CODE,delta=1
    38                           	psect	text23,global,reloc=2,class=CODE,delta=1
    39                           	psect	text24,global,reloc=2,class=CODE,delta=1
    40                           	psect	text25,global,reloc=2,class=CODE,delta=1
    41                           	psect	text26,global,reloc=2,class=CODE,delta=1
    42                           	psect	text27,global,reloc=2,class=CODE,delta=1
    43                           	psect	text28,global,reloc=2,class=CODE,delta=1
    44                           	psect	text29,global,reloc=2,class=CODE,delta=1
    45                           	psect	text30,global,reloc=2,class=CODE,delta=1
    46                           	psect	text31,global,reloc=2,class=CODE,delta=1
    47                           	psect	text32,global,reloc=2,class=CODE,delta=1
    48                           	psect	text33,global,reloc=2,class=CODE,delta=1
    49                           	psect	text34,global,reloc=2,class=CODE,delta=1
    50                           	psect	text35,global,reloc=2,class=CODE,delta=1
    51                           	psect	intcode,global,reloc=2,class=CODE,delta=1
    52                           	psect	intcode_body,global,reloc=2,class=CODE,delta=1
    53                           	psect	text37,global,reloc=2,class=CODE,delta=1
    54                           	psect	text38,global,reloc=2,class=CODE,delta=1
    55                           	psect	text39,global,reloc=2,class=CODE,delta=1
    56                           	psect	text40,global,reloc=2,class=CODE,delta=1
    57                           	psect	text41,global,reloc=2,class=CODE,delta=1
    58                           	psect	text42,global,reloc=2,class=CODE,delta=1
    59                           	psect	text43,global,reloc=2,class=CODE,delta=1
    60                           	psect	text44,global,reloc=2,class=CODE,delta=1
    61                           	psect	text45,global,reloc=2,class=CODE,delta=1
    62                           	psect	text46,global,reloc=2,class=CODE,delta=1
    63                           	psect	text47,global,reloc=2,class=CODE,delta=1
    64                           	psect	text48,global,reloc=2,class=CODE,delta=1
    65                           	psect	text49,global,reloc=2,class=CODE,delta=1
    66                           	psect	text50,global,reloc=2,class=CODE,delta=1
    67                           	psect	text51,global,reloc=2,class=CODE,delta=1
    68                           	psect	text52,global,reloc=2,class=CODE,delta=1
    69                           	psect	text53,global,reloc=2,class=CODE,delta=1
    70                           	psect	text54,global,reloc=2,class=CODE,delta=1
    71                           	psect	text55,global,reloc=2,class=CODE,delta=1
    72                           	psect	intsave_regs,global,class=BIGRAM,space=1,delta=1,noexec
    73                           	psect	rparam,global,class=COMRAM,space=1,delta=1,noexec
    74                           	psect	temp,global,ovrld,common,class=COMRAM,space=1,delta=1
    75                           	psect	config,global,abs,ovrld,class=CONFIG,space=4,delta=1,noexec
    76   000000                     
    77                           ; Generated 23/03/2023 GMT
    78                           ; 
    79                           ; Copyright © 2023, Microchip Technology Inc. and its subsidiaries ("Microchip")
    80                           ; All rights reserved.
    81                           ; 
    82                           ; This software is developed by Microchip Technology Inc. and its subsidiaries ("Microch
      +                          ip").
    83                           ; 
    84                           ; Redistribution and use in source and binary forms, with or without modification, are
    85                           ; permitted provided that the following conditions are met:
    86                           ; 
    87                           ;     1. Redistributions of source code must retain the above copyright notice, this lis
      +                          t of
    88                           ;        conditions and the following disclaimer.
    89                           ; 
    90                           ;     2. Redistributions in binary form must reproduce the above copyright notice, this 
      +                          list
    91                           ;        of conditions and the following disclaimer in the documentation and/or other
    92                           ;        materials provided with the distribution. Publication is not required when
    93                           ;        this file is used in an embedded application.
    94                           ; 
    95                           ;     3. Microchip's name may not be used to endorse or promote products derived from th
      +                          is
    96                           ;        software without specific prior written permission.
    97                           ; 
    98                           ; THIS SOFTWARE IS PROVIDED BY MICROCHIP "AS IS" AND ANY EXPRESS OR IMPLIED WARRANTIES,
    99                           ; INCLUDING, BUT NOT LIMITED TO, THE IMPLIED WARRANTIES OF MERCHANTABILITY AND FITNESS F
      +                          OR
   100                           ; PURPOSE ARE DISCLAIMED.  IN NO EVENT SHALL MICROCHIP BE LIABLE FOR ANY DIRECT, INDIREC
      +                          T,
   101                           ; INCIDENTAL, SPECIAL, EXEMPLARY, OR CONSEQUENTIAL DAMAGES (INCLUDING BUT NOT LIMITED TO
   102                           ; PROCUREMENT OF SUBSTITUTE GOODS OR SERVICES; LOSS OF USE, DATA OR PROFITS; OR BUSINESS
   103                           ; INTERRUPTION) HOWSOEVER CAUSED AND ON ANY THEORY OF LIABILITY, WHETHER IN CONTRACT, ST
      +                          RICT
   104                           ; LIABILITY, OR TORT (INCLUDING NEGLIGENCE OR OTHERWISE) ARISING IN ANY WAY OUT OF THE U
      +                          SE OF
   105                           ; THIS SOFTWARE, EVEN IF ADVISED OF THE POSSIBILITY OF SUCH DAMAGE.
   106                           ; 
   107                           ; 
   108                           ; Code-generator required, PIC18F4620 Definitions
   109                           ; 
   110                           ; SFR Addresses
   111   000000                     
   112                           	psect	idataCOMRAM
   113   0028C8                     __pidataCOMRAM:
   114                           	callstack 0
   115                           
   116                           ;initializer for spi_slave_mode_configuration@F3145
   117   0028C8  68                 	db	104
   118                           
   119                           ;initializer for spi_slave_mode_configuration@F3143
   120   0028C9  5A                 	db	90
   121                           
   122                           ;initializer for spi_slave_mode_configuration@F3141
   123   0028CA  62                 	db	98
   124                           
   125                           ;initializer for spi_slave_mode_configuration@F3139
   126   0028CB  2A                 	db	42
   127                           
   128                           ;initializer for spi_master_mode_configuration@F3135
   129   0028CC  1A                 	db	26
   130                           
   131                           ;initializer for spi_master_mode_configuration@F3133
   132   0028CD  62                 	db	98
   133                           
   134                           ;initializer for spi_master_mode_configuration@F3131
   135   0028CE  2A                 	db	42
   136                           
   137                           ;initializer for _RB7_Flag
   138   0028CF  01                 	db	1
   139                           
   140                           ;initializer for _RB6_Flag
   141   0028D0  01                 	db	1
   142                           
   143                           ;initializer for _RB5_Flag
   144   0028D1  01                 	db	1
   145                           
   146                           ;initializer for _RB4_Flag
   147   0028D2  01                 	db	1
   148                           
   149                           ;initializer for _motor_2
   150   0028D3  11                 	db	17
   151   0028D4  19                 	db	25
   152                           
   153                           ;initializer for _motor_1
   154   0028D5  01                 	db	1
   155   0028D6  09                 	db	9
   156                           
   157                           ;initializer for _green
   158   0028D7  20                 	db	32
   159                           
   160                           	psect	idataBANK0
   161   002772                     __pidataBANK0:
   162                           	callstack 0
   163                           
   164                           ;initializer for _lat_registers
   165   002772  89                 	db	137
   166   002773  0F                 	db	15
   167   002774  8A                 	db	138
   168   002775  0F                 	db	15
   169   002776  8B                 	db	139
   170   002777  0F                 	db	15
   171   002778  8C                 	db	140
   172   002779  0F                 	db	15
   173   00277A  8D                 	db	141
   174   00277B  0F                 	db	15
   175                           
   176                           ;initializer for _port_registers
   177   00277C  80                 	db	128
   178   00277D  0F                 	db	15
   179   00277E  81                 	db	129
   180   00277F  0F                 	db	15
   181   002780  82                 	db	130
   182   002781  0F                 	db	15
   183   002782  83                 	db	131
   184   002783  0F                 	db	15
   185   002784  84                 	db	132
   186   002785  0F                 	db	15
   187                           
   188                           ;initializer for _tris_registers
   189   002786  92                 	db	146
   190   002787  0F                 	db	15
   191   002788  93                 	db	147
   192   002789  0F                 	db	15
   193   00278A  94                 	db	148
   194   00278B  0F                 	db	15
   195   00278C  95                 	db	149
   196   00278D  0F                 	db	15
   197   00278E  96                 	db	150
   198   00278F  0F                 	db	15
   199                           
   200                           ;initializer for _Stored_password
   201   002790  31                 	db	49
   202   002791  32                 	db	50
   203   002792  33                 	db	51
   204   002793  34                 	db	52
   205   002794  00                 	db	0
   206                           
   207                           ;initializer for _keypad_1
   208   002795  32                 	db	50
   209   002796  3A                 	db	58
   210   002797  03                 	db	3
   211   002798  0B                 	db	11
   212   002799  53                 	db	83
   213   00279A  5B                 	db	91
   214   00279B  63                 	db	99
   215   00279C  6B                 	db	107
   216                           
   217                           ;initializer for _lcd_2
   218   00279D  02                 	db	2
   219   00279E  8A                 	db	138
   220   00279F  12                 	db	18
   221   0027A0  1A                 	db	26
   222   0027A1  22                 	db	34
   223   0027A2  2A                 	db	42
   224                           
   225                           	psect	smallconst
   226   001000                     __psmallconst:
   227                           	callstack 0
   228   001000  00                 	db	0
   229   001001                     _keypad_values:
   230                           	callstack 0
   231   001001  37                 	db	55
   232   001002  38                 	db	56
   233   001003  39                 	db	57
   234   001004  2F                 	db	47
   235   001005  34                 	db	52
   236   001006  35                 	db	53
   237   001007  36                 	db	54
   238   001008  2A                 	db	42
   239   001009  31                 	db	49
   240   00100A  32                 	db	50
   241   00100B  33                 	db	51
   242   00100C  2D                 	db	45
   243   00100D  63                 	db	99
   244   00100E  30                 	db	48
   245   00100F  3D                 	db	61
   246   001010  2B                 	db	43
   247   001011                     __end_of_keypad_values:
   248                           	callstack 0
   249   000000                     _TMR3L	set	4018
   250   000000                     _TMR3H	set	4019
   251   000000                     _TMR1L	set	4046
   252   000000                     _TMR1H	set	4047
   253   000000                     _SSPSTATbits	set	4039
   254   000000                     _SSPCON2bits	set	4037
   255   000000                     _SSPADD	set	4040
   256   000000                     _SSPCON1bits	set	4038
   257   000000                     _INTCON2bits	set	4081
   258   000000                     _INTCON3bits	set	4080
   259   000000                     _SPBRGH	set	4016
   260   000000                     _SPBRG	set	4015
   261   000000                     _BAUDCONbits	set	4024
   262   000000                     _RCREG	set	4014
   263   000000                     _TXREG	set	4013
   264   000000                     _TXSTAbits	set	4012
   265   000000                     _TRISCbits	set	3988
   266   000000                     _RCSTAbits	set	4011
   267   000000                     _EEDATA	set	4008
   268   000000                     _EECON2	set	4007
   269   000000                     _EEADR	set	4009
   270   000000                     _EEADRH	set	4010
   271   000000                     _CCPR2L	set	4027
   272   000000                     _CCPR2H	set	4028
   273   000000                     _CCPR1L	set	4030
   274   000000                     _CCPR1H	set	4031
   275   000000                     _ADCON1bits	set	4033
   276   000000                     _ADRESL	set	4035
   277   000000                     _ADRESH	set	4036
   278   000000                     _INTCONbits	set	4082
   279   000000                     _TRISD	set	3989
   280   000000                     _TRISB	set	3987
   281   000000                     _TRISE	set	3990
   282   000000                     _PORTBbits	set	3969
   283   000000                     _TXSTA1bits	set	4012
   284   000000                     _TRISC	set	3988
   285   000000                     _PIE1bits	set	3997
   286   000000                     _ADCON2bits	set	4032
   287   000000                     _ADCON0bits	set	4034
   288   000000                     _LATA	set	3977
   289   000000                     _PORTE	set	3972
   290   000000                     _PORTD	set	3971
   291   000000                     _PORTC	set	3970
   292   000000                     _PORTB	set	3969
   293   000000                     _PORTA	set	3968
   294   000000                     _TRISA	set	3986
   295   000000                     _PIE2bits	set	4000
   296   000000                     _CCP2CONbits	set	4026
   297   000000                     _CCP1CONbits	set	4029
   298   000000                     _PIR1bits	set	3998
   299   000000                     _EECON1bits	set	4006
   300   000000                     _T3CONbits	set	4017
   301   000000                     _PIR2bits	set	4001
   302   000000                     _LATE	set	3981
   303   000000                     _LATD	set	3980
   304   000000                     _LATC	set	3979
   305   000000                     _LATB	set	3978
   306   000000                     _TMR2	set	4044
   307   000000                     _T2CONbits	set	4042
   308   000000                     _T1CONbits	set	4045
   309   000000                     _T0CONbits	set	4053
   310   000000                     _SSPBUF	set	4041
   311   000000                     _TMR0H	set	4055
   312   000000                     _TMR0L	set	4054
   313   001011                     STR_5:
   314   001011  63                 	db	99	;'c'
   315   001012  6F                 	db	111	;'o'
   316   001013  72                 	db	114	;'r'
   317   001014  72                 	db	114	;'r'
   318   001015  65                 	db	101	;'e'
   319   001016  63                 	db	99	;'c'
   320   001017  74                 	db	116	;'t'
   321   001018  20                 	db	32
   322   001019  70                 	db	112	;'p'
   323   00101A  61                 	db	97	;'a'
   324   00101B  73                 	db	115	;'s'
   325   00101C  73                 	db	115	;'s'
   326   00101D  77                 	db	119	;'w'
   327   00101E  6F                 	db	111	;'o'
   328   00101F  72                 	db	114	;'r'
   329   001020  64                 	db	100	;'d'
   330   001021  00                 	db	0
   331   001022                     STR_6:
   332   001022  6C                 	db	108	;'l'
   333   001023  6F                 	db	111	;'o'
   334   001024  6F                 	db	111	;'o'
   335   001025  6B                 	db	107	;'k'
   336   001026  20                 	db	32
   337   001027  64                 	db	100	;'d'
   338   001028  6F                 	db	111	;'o'
   339   001029  6F                 	db	111	;'o'
   340   00102A  72                 	db	114	;'r'
   341   00102B  20                 	db	32
   342   00102C  61                 	db	97	;'a'
   343   00102D  67                 	db	103	;'g'
   344   00102E  61                 	db	97	;'a'
   345   00102F  69                 	db	105	;'i'
   346   001030  6E                 	db	110	;'n'
   347   001031  00                 	db	0
   348   001032                     STR_4:
   349   001032  65                 	db	101	;'e'
   350   001033  6E                 	db	110	;'n'
   351   001034  74                 	db	116	;'t'
   352   001035  65                 	db	101	;'e'
   353   001036  72                 	db	114	;'r'
   354   001037  20                 	db	32
   355   001038  70                 	db	112	;'p'
   356   001039  61                 	db	97	;'a'
   357   00103A  73                 	db	115	;'s'
   358   00103B  73                 	db	115	;'s'
   359   00103C  77                 	db	119	;'w'
   360   00103D  6F                 	db	111	;'o'
   361   00103E  72                 	db	114	;'r'
   362   00103F  64                 	db	100	;'d'
   363   001040  00                 	db	0
   364   001041                     STR_8:
   365   001041  70                 	db	112	;'p'
   366   001042  6C                 	db	108	;'l'
   367   001043  65                 	db	101	;'e'
   368   001044  61                 	db	97	;'a'
   369   001045  73                 	db	115	;'s'
   370   001046  65                 	db	101	;'e'
   371   001047  20                 	db	32
   372   001048  77                 	db	119	;'w'
   373   001049  61                 	db	97	;'a'
   374   00104A  69                 	db	105	;'i'
   375   00104B  74                 	db	116	;'t'
   376   00104C  3A                 	db	58	;':'
   377   00104D  00                 	db	0
   378   00104E                     STR_7:
   379   00104E  69                 	db	105	;'i'
   380   00104F  6E                 	db	110	;'n'
   381   001050  63                 	db	99	;'c'
   382   001051  6F                 	db	111	;'o'
   383   001052  72                 	db	114	;'r'
   384   001053  72                 	db	114	;'r'
   385   001054  65                 	db	101	;'e'
   386   001055  63                 	db	99	;'c'
   387   001056  74                 	db	116	;'t'
   388   001057  00                 	db	0
   389   001058                     STR_1:
   390   001058  25                 	db	37
   391   001059  69                 	db	105	;'i'
   392   00105A  00                 	db	0
   393   00105B  00                 	db	0	; dummy byte at the end
   394   000000                     
   395                           ; #config settings
   396                           
   397                           	psect	cinit
   398   002398                     __pcinit:
   399                           	callstack 0
   400   002398                     start_initialization:
   401                           	callstack 0
   402   002398                     __initialization:
   403                           	callstack 0
   404                           
   405                           ; Initialize objects allocated to BANK0 (49 bytes)
   406                           ; load TBLPTR registers with __pidataBANK0
   407   002398  0E72               	movlw	low __pidataBANK0
   408   00239A  6EF6               	movwf	tblptrl,c
   409   00239C  0E27               	movlw	high __pidataBANK0
   410   00239E  6EF7               	movwf	tblptrh,c
   411   0023A0  0E00               	movlw	low (__pidataBANK0 shr (0+16))
   412   0023A2  6EF8               	movwf	tblptru,c
   413   0023A4  EE00  F0C2         	lfsr	0,__pdataBANK0
   414   0023A8  EE10 F031          	lfsr	1,49
   415   0023AC                     copy_data0:
   416   0023AC  0009               	tblrd		*+
   417   0023AE  CFF5 FFEE          	movff	tablat,postinc0
   418   0023B2  50E5               	movf	postdec1,w,c
   419   0023B4  50E1               	movf	fsr1l,w,c
   420   0023B6  E1FA               	bnz	copy_data0
   421                           
   422                           ; Initialize objects allocated to COMRAM (16 bytes)
   423                           ; load TBLPTR registers with __pidataCOMRAM
   424   0023B8  0EC8               	movlw	low __pidataCOMRAM
   425   0023BA  6EF6               	movwf	tblptrl,c
   426   0023BC  0E28               	movlw	high __pidataCOMRAM
   427   0023BE  6EF7               	movwf	tblptrh,c
   428   0023C0  0E00               	movlw	low (__pidataCOMRAM shr (0+16))
   429   0023C2  6EF8               	movwf	tblptru,c
   430   0023C4  EE00  F06B         	lfsr	0,__pdataCOMRAM
   431   0023C8  EE10 F010          	lfsr	1,16
   432   0023CC                     copy_data1:
   433   0023CC  0009               	tblrd		*+
   434   0023CE  CFF5 FFEE          	movff	tablat,postinc0
   435   0023D2  50E5               	movf	postdec1,w,c
   436   0023D4  50E1               	movf	fsr1l,w,c
   437   0023D6  E1FA               	bnz	copy_data1
   438                           
   439                           ; Clear objects allocated to BANK0 (66 bytes)
   440   0023D8  EE00  F080         	lfsr	0,__pbssBANK0
   441   0023DC  0E42               	movlw	66
   442   0023DE                     clear_0:
   443   0023DE  6AEE               	clrf	postinc0,c
   444   0023E0  06E8               	decf	wreg,f,c
   445   0023E2  E1FD               	bnz	clear_0
   446                           
   447                           ; Clear objects allocated to COMRAM (59 bytes)
   448   0023E4  EE00  F001         	lfsr	0,__pbssCOMRAM
   449   0023E8  0E3B               	movlw	59
   450   0023EA                     clear_1:
   451   0023EA  6AEE               	clrf	postinc0,c
   452   0023EC  06E8               	decf	wreg,f,c
   453   0023EE  E1FD               	bnz	clear_1
   454   0023F0                     end_of_initialization:
   455                           	callstack 0
   456   0023F0                     __end_of__initialization:
   457                           	callstack 0
   458   0023F0  907B               	bcf	int$flags,0,c	;clear compiler interrupt flag (level 1)
   459   0023F2  927B               	bcf	int$flags,1,c	;clear compiler interrupt flag (level 2)
   460   0023F4  0100               	movlb	0
   461   0023F6  EF31  F00A         	goto	_main	;jump to C main() function
   462                           
   463                           	psect	bssCOMRAM
   464   000001                     __pbssCOMRAM:
   465                           	callstack 0
   466   000001                     _preload_vall:
   467                           	callstack 0
   468   000001                     	ds	2
   469   000003                     _preload_value@hal_timer1$F3998:
   470                           	callstack 0
   471   000003                     	ds	2
   472   000005                     _preload_value:
   473                           	callstack 0
   474   000005                     	ds	2
   475   000007                     _I2C_Write_Collision_HANDLERF:
   476                           	callstack 0
   477   000007                     	ds	2
   478   000009                     _RB7_InterruptHandeler_Low:
   479                           	callstack 0
   480   000009                     	ds	2
   481   00000B                     _RB7_InterruptHandeler_High:
   482                           	callstack 0
   483   00000B                     	ds	2
   484   00000D                     _RB6_InterruptHandeler_Low:
   485                           	callstack 0
   486   00000D                     	ds	2
   487   00000F                     _RB6_InterruptHandeler_High:
   488                           	callstack 0
   489   00000F                     	ds	2
   490   000011                     _RB5_InterruptHandeler_Low:
   491                           	callstack 0
   492   000011                     	ds	2
   493   000013                     _RB5_InterruptHandeler_High:
   494                           	callstack 0
   495   000013                     	ds	2
   496   000015                     _RB4_InterruptHandeler_Low:
   497                           	callstack 0
   498   000015                     	ds	2
   499   000017                     _RB4_InterruptHandeler_High:
   500                           	callstack 0
   501   000017                     	ds	2
   502   000019                     _INT2_InterruptHandeler:
   503                           	callstack 0
   504   000019                     	ds	2
   505   00001B                     _INT1_InterruptHandeler:
   506                           	callstack 0
   507   00001B                     	ds	2
   508   00001D                     _INT0_InterruptHandeler:
   509                           	callstack 0
   510   00001D                     	ds	2
   511   00001F                     _EUSART_OVERRUN_ERROR_INTERRUPT_HANDLERF:
   512                           	callstack 0
   513   00001F                     	ds	2
   514   000021                     _EUSART_FRAMING_ERROR_INTERRUPT_HANDLERF:
   515                           	callstack 0
   516   000021                     	ds	2
   517   000023                     _EUSART_RX_INTERRUPT_HANDLERF:
   518                           	callstack 0
   519   000023                     	ds	2
   520   000025                     _EUSART_TX_INTERRUPT_HANDLERF:
   521                           	callstack 0
   522   000025                     	ds	2
   523   000027                     capture_read_value@F3164:
   524                           	callstack 0
   525   000027                     	ds	2
   526   000029                     _CCP2_INTERRUPT_HANDLERF:
   527                           	callstack 0
   528   000029                     	ds	2
   529   00002B                     _CCP1_INTERRUPT_HANDLERF:
   530                           	callstack 0
   531   00002B                     	ds	2
   532   00002D                     _ADC_INTERRUPT_HANDLERF:
   533                           	callstack 0
   534   00002D                     	ds	2
   535   00002F                     _flags:
   536                           	callstack 0
   537   00002F                     	ds	1
   538   000030                     _value:
   539                           	callstack 0
   540   000030                     	ds	1
   541   000031                     _ret:
   542                           	callstack 0
   543   000031                     	ds	1
   544   000032                     _preload_val:
   545                           	callstack 0
   546   000032                     	ds	1
   547   000033                     relay_off@F3062:
   548                           	callstack 0
   549   000033                     	ds	1
   550   000034                     relay_on@F3057:
   551                           	callstack 0
   552   000034                     	ds	1
   553   000035                     relay_initalize@F3052:
   554                           	callstack 0
   555   000035                     	ds	1
   556   000036                     led_toggle@F3069:
   557                           	callstack 0
   558   000036                     	ds	1
   559   000037                     led_off@F3064:
   560                           	callstack 0
   561   000037                     	ds	1
   562   000038                     led_on@F3059:
   563                           	callstack 0
   564   000038                     	ds	1
   565   000039                     led_intalize@F3054:
   566                           	callstack 0
   567   000039                     	ds	1
   568   00003A                     _num_of_incor:
   569                           	callstack 0
   570   00003A                     	ds	1
   571   00003B                     _red:
   572                           	callstack 0
   573   00003B                     	ds	1
   574                           
   575                           	psect	dataCOMRAM
   576   00006B                     __pdataCOMRAM:
   577                           	callstack 0
   578   00006B                     spi_slave_mode_configuration@F3145:
   579                           	callstack 0
   580   00006B                     	ds	1
   581   00006C                     spi_slave_mode_configuration@F3143:
   582                           	callstack 0
   583   00006C                     	ds	1
   584   00006D                     spi_slave_mode_configuration@F3141:
   585                           	callstack 0
   586   00006D                     	ds	1
   587   00006E                     spi_slave_mode_configuration@F3139:
   588                           	callstack 0
   589   00006E                     	ds	1
   590   00006F                     spi_master_mode_configuration@F3135:
   591                           	callstack 0
   592   00006F                     	ds	1
   593   000070                     spi_master_mode_configuration@F3133:
   594                           	callstack 0
   595   000070                     	ds	1
   596   000071                     spi_master_mode_configuration@F3131:
   597                           	callstack 0
   598   000071                     	ds	1
   599   000072                     _RB7_Flag:
   600                           	callstack 0
   601   000072                     	ds	1
   602   000073                     _RB6_Flag:
   603                           	callstack 0
   604   000073                     	ds	1
   605   000074                     _RB5_Flag:
   606                           	callstack 0
   607   000074                     	ds	1
   608   000075                     _RB4_Flag:
   609                           	callstack 0
   610   000075                     	ds	1
   611   000076                     _motor_2:
   612                           	callstack 0
   613   000076                     	ds	2
   614   000078                     _motor_1:
   615                           	callstack 0
   616   000078                     	ds	2
   617   00007A                     _green:
   618                           	callstack 0
   619   00007A                     	ds	1
   620                           
   621                           	psect	bssBANK0
   622   000080                     __pbssBANK0:
   623                           	callstack 0
   624   000080                     _dbuf:
   625                           	callstack 0
   626   000080                     	ds	32
   627   0000A0                     	ds	6
   628   0000A6                     _width:
   629                           	callstack 0
   630   0000A6                     	ds	2
   631   0000A8                     _prec:
   632                           	callstack 0
   633   0000A8                     	ds	2
   634   0000AA                     _TIMER3_INTERRUPT_HANDLERF:
   635                           	callstack 0
   636   0000AA                     	ds	2
   637   0000AC                     _TMR2_INTERRUPT_HANDLER:
   638                           	callstack 0
   639   0000AC                     	ds	2
   640   0000AE                     _TIMER1_INTERRUPPT_HANDLERF:
   641                           	callstack 0
   642   0000AE                     	ds	2
   643   0000B0                     _TIMER0_INTERRUPPT:
   644                           	callstack 0
   645   0000B0                     	ds	2
   646   0000B2                     _MSSP_SPI_INTERRUPT_HANDLERF:
   647                           	callstack 0
   648   0000B2                     	ds	2
   649   0000B4                     _I2C_INTERRUPT_HANDLERF:
   650                           	callstack 0
   651   0000B4                     	ds	2
   652   0000B6                     _I2C_Receive_Overflow_IndicatoR_HANDLERF:
   653                           	callstack 0
   654   0000B6                     	ds	2
   655   0000B8                     _enter_password:
   656                           	callstack 0
   657   0000B8                     	ds	5
   658   0000BD                     _str:
   659                           	callstack 0
   660   0000BD                     	ds	5
   661                           
   662                           	psect	dataBANK0
   663   0000C2                     __pdataBANK0:
   664                           	callstack 0
   665   0000C2                     _lat_registers:
   666                           	callstack 0
   667   0000C2                     	ds	10
   668   0000CC                     _port_registers:
   669                           	callstack 0
   670   0000CC                     	ds	10
   671   0000D6                     _tris_registers:
   672                           	callstack 0
   673   0000D6                     	ds	10
   674   0000E0                     _Stored_password:
   675                           	callstack 0
   676   0000E0                     	ds	5
   677   0000E5                     _keypad_1:
   678                           	callstack 0
   679   0000E5                     	ds	8
   680   0000ED                     _lcd_2:
   681                           	callstack 0
   682   0000ED                     	ds	6
   683                           
   684                           	psect	cstackBANK0
   685   0000F3                     __pcstackBANK0:
   686                           	callstack 0
   687   0000F3                     main@i:
   688                           	callstack 0
   689                           
   690                           ; 2 bytes @ 0x0
   691   0000F3                     	ds	2
   692   0000F5                     main@k:
   693                           	callstack 0
   694                           
   695                           ; 2 bytes @ 0x2
   696   0000F5                     	ds	2
   697                           
   698                           	psect	cstackCOMRAM
   699   00003C                     __pcstackCOMRAM:
   700                           	callstack 0
   701   00003C                     RB4_ISR@RB4_source:
   702                           	callstack 0
   703   00003C                     RB5_ISR@RB5_source:
   704                           	callstack 0
   705   00003C                     RB6_ISR@RB6_source:
   706                           	callstack 0
   707   00003C                     RB7_ISR@RB7_source:
   708                           	callstack 0
   709   00003C                     
   710                           ; 1 bytes @ 0x0
   711   00003C                     	ds	1
   712   00003D                     ?___awdiv:
   713                           	callstack 0
   714   00003D                     ?___awmod:
   715                           	callstack 0
   716   00003D                     gpio_pin_direction_intialize@__pin_t:
   717                           	callstack 0
   718   00003D                     gpio_pin_write_logic@_pin_t:
   719                           	callstack 0
   720   00003D                     gpio_pin_read_logic@_pin_t:
   721                           	callstack 0
   722   00003D                     memset@dest:
   723                           	callstack 0
   724   00003D                     EEPROM_Write_Data@S_Add:
   725                           	callstack 0
   726   00003D                     EEPROM_Read_Data@S_Add:
   727                           	callstack 0
   728   00003D                     ___awdiv@dividend:
   729                           	callstack 0
   730   00003D                     ___awmod@dividend:
   731                           	callstack 0
   732   00003D                     fputc@c:
   733                           	callstack 0
   734                           
   735                           ; 2 bytes @ 0x1
   736   00003D                     	ds	1
   737   00003E                     ??_gpio_pin_direction_intialize:
   738   00003E                     gpio_pin_write_logic@logic:
   739                           	callstack 0
   740   00003E                     gpio_pin_read_logic@logic:
   741                           	callstack 0
   742   00003E                     memset@c:
   743                           	callstack 0
   744                           
   745                           ; 2 bytes @ 0x2
   746   00003E                     	ds	1
   747   00003F                     ??_gpio_pin_write_logic:
   748   00003F                     ??_gpio_pin_read_logic:
   749   00003F                     EEPROM_Write_Data@ddata:
   750                           	callstack 0
   751   00003F                     EEPROM_Read_Data@ddata:
   752                           	callstack 0
   753   00003F                     fputc@fp:
   754                           	callstack 0
   755   00003F                     ___awdiv@divisor:
   756                           	callstack 0
   757   00003F                     ___awmod@divisor:
   758                           	callstack 0
   759                           
   760                           ; 2 bytes @ 0x3
   761   00003F                     	ds	1
   762   000040                     ??_fputc:
   763   000040                     EEPROM_Write_Data@Global_Interrupt_Statue:
   764                           	callstack 0
   765   000040                     memset@n:
   766                           	callstack 0
   767                           
   768                           ; 2 bytes @ 0x4
   769   000040                     	ds	1
   770   000041                     ___awdiv@counter:
   771                           	callstack 0
   772   000041                     ___awmod@counter:
   773                           	callstack 0
   774                           
   775                           ; 1 bytes @ 0x5
   776   000041                     	ds	1
   777   000042                     ___awdiv@sign:
   778                           	callstack 0
   779   000042                     ___awmod@sign:
   780                           	callstack 0
   781   000042                     memset@p:
   782                           	callstack 0
   783                           
   784                           ; 1 bytes @ 0x6
   785   000042                     	ds	1
   786   000043                     ?_abs:
   787                           	callstack 0
   788   000043                     gpio_pin_direction_intialize@ret:
   789                           	callstack 0
   790   000043                     gpio_pin_read_logic@ret:
   791                           	callstack 0
   792   000043                     ___awdiv@quotient:
   793                           	callstack 0
   794   000043                     abs@a:
   795                           	callstack 0
   796                           
   797                           ; 2 bytes @ 0x7
   798   000043                     	ds	1
   799   000044                     gpio_pin_write_logic@ret:
   800                           	callstack 0
   801                           
   802                           ; 1 bytes @ 0x8
   803   000044                     	ds	1
   804   000045                     ??_abs:
   805   000045                     lcd_send_4bit_command_data@lcd:
   806                           	callstack 0
   807   000045                     lcd_send_4bit_enable@lcd:
   808                           	callstack 0
   809   000045                     motor_move_right@motor:
   810                           	callstack 0
   811   000045                     motor_move_left@motor:
   812                           	callstack 0
   813   000045                     keypad_get_value@keypad:
   814                           	callstack 0
   815   000045                     led_on@led:
   816                           	callstack 0
   817   000045                     gpio_pin_intialize@_pin_t:
   818                           	callstack 0
   819                           
   820                           ; 1 bytes @ 0x9
   821   000045                     	ds	1
   822   000046                     ??_gpio_pin_intialize:
   823   000046                     ??_led_on:
   824   000046                     lcd_send_4bit_command_data@data:
   825                           	callstack 0
   826   000046                     lcd_send_4bit_enable@ret:
   827                           	callstack 0
   828   000046                     keypad_get_value@value:
   829                           	callstack 0
   830                           
   831                           ; 1 bytes @ 0xA
   832   000046                     	ds	1
   833   000047                     ??_keypad_get_value:
   834   000047                     lcd_send_4bit_command_data@ret:
   835                           	callstack 0
   836   000047                     led_on@ret:
   837                           	callstack 0
   838   000047                     gpio_pin_intialize@ret:
   839                           	callstack 0
   840   000047                     vfpfcnvrt@fp:
   841                           	callstack 0
   842                           
   843                           ; 1 bytes @ 0xB
   844   000047                     	ds	1
   845   000048                     lcd_4bit_send_command@lcd:
   846                           	callstack 0
   847   000048                     lcd_4bit_send_data_char@lcd:
   848                           	callstack 0
   849   000048                     motor_initialize@motor:
   850                           	callstack 0
   851   000048                     keypad_initialize@keypad:
   852                           	callstack 0
   853   000048                     keypad_get_value@ret:
   854                           	callstack 0
   855   000048                     led_intalize@led:
   856                           	callstack 0
   857   000048                     led_on@obj:
   858                           	callstack 0
   859   000048                     vfpfcnvrt@fmt:
   860                           	callstack 0
   861                           
   862                           ; 1 bytes @ 0xC
   863   000048                     	ds	1
   864   000049                     ??_led_intalize:
   865   000049                     lcd_4bit_send_command@command:
   866                           	callstack 0
   867   000049                     lcd_4bit_send_data_char@data:
   868                           	callstack 0
   869   000049                     motor_initialize@ret:
   870                           	callstack 0
   871   000049                     keypad_initialize@ret:
   872                           	callstack 0
   873   000049                     keypad_get_value@ret_logic:
   874                           	callstack 0
   875   000049                     vfpfcnvrt@ap:
   876                           	callstack 0
   877                           
   878                           ; 1 bytes @ 0xD
   879   000049                     	ds	1
   880   00004A                     ??_vfpfcnvrt:
   881   00004A                     lcd_4bit_send_command@ret:
   882                           	callstack 0
   883   00004A                     lcd_4bit_send_data_char@ret:
   884                           	callstack 0
   885   00004A                     keypad_initialize@row_counter:
   886                           	callstack 0
   887   00004A                     keypad_get_value@row_counter:
   888                           	callstack 0
   889   00004A                     led_intalize@ret:
   890                           	callstack 0
   891                           
   892                           ; 1 bytes @ 0xE
   893   00004A                     	ds	1
   894   00004B                     lcd_4bit_initialize@lcd:
   895                           	callstack 0
   896   00004B                     lcd_4bit_send_data_string@lcd:
   897                           	callstack 0
   898   00004B                     lcd_set_cursor_4bit@lcd:
   899                           	callstack 0
   900   00004B                     keypad_initialize@column_counter:
   901                           	callstack 0
   902   00004B                     keypad_get_value@l_counter:
   903                           	callstack 0
   904   00004B                     led_intalize@obj:
   905                           	callstack 0
   906   00004B                     vfpfcnvrt@done:
   907                           	callstack 0
   908                           
   909                           ; 1 bytes @ 0xF
   910   00004B                     	ds	1
   911   00004C                     ??_lcd_4bit_initialize:
   912   00004C                     lcd_4bit_send_data_string@data:
   913                           	callstack 0
   914   00004C                     lcd_set_cursor_4bit@row:
   915                           	callstack 0
   916   00004C                     keypad_get_value@column_counter:
   917                           	callstack 0
   918   00004C                     vfpfcnvrt@cp:
   919                           	callstack 0
   920                           
   921                           ; 1 bytes @ 0x10
   922   00004C                     	ds	1
   923   00004D                     lcd_4bit_initialize@l_counter:
   924                           	callstack 0
   925   00004D                     lcd_4bit_send_data_string@ret:
   926                           	callstack 0
   927   00004D                     lcd_set_cursor_4bit@column:
   928                           	callstack 0
   929   00004D                     vfpfcnvrt@convarg:
   930                           	callstack 0
   931                           
   932                           ; 4 bytes @ 0x11
   933   00004D                     	ds	1
   934   00004E                     ??_lcd_set_cursor_4bit:
   935   00004E                     lcd_4bit_initialize@ret:
   936                           	callstack 0
   937                           
   938                           ; 1 bytes @ 0x12
   939   00004E                     	ds	1
   940   00004F                     
   941                           ; 1 bytes @ 0x13
   942   00004F                     	ds	1
   943   000050                     lcd_set_cursor_4bit@ret:
   944                           	callstack 0
   945                           
   946                           ; 1 bytes @ 0x14
   947   000050                     	ds	1
   948   000051                     lcd_4bit_send_data_char_posit@lcd:
   949                           	callstack 0
   950   000051                     lcd_4bit_send_data_string_posit@lcd:
   951                           	callstack 0
   952   000051                     vfpfcnvrt@c:
   953                           	callstack 0
   954                           
   955                           ; 1 bytes @ 0x15
   956   000051                     	ds	1
   957   000052                     ?_vfprintf:
   958                           	callstack 0
   959   000052                     lcd_4bit_send_data_char_posit@row:
   960                           	callstack 0
   961   000052                     lcd_4bit_send_data_string_posit@row:
   962                           	callstack 0
   963   000052                     vfprintf@fp:
   964                           	callstack 0
   965                           
   966                           ; 1 bytes @ 0x16
   967   000052                     	ds	1
   968   000053                     lcd_4bit_send_data_char_posit@colunm:
   969                           	callstack 0
   970   000053                     lcd_4bit_send_data_string_posit@colunm:
   971                           	callstack 0
   972   000053                     vfprintf@fmt:
   973                           	callstack 0
   974                           
   975                           ; 1 bytes @ 0x17
   976   000053                     	ds	1
   977   000054                     lcd_4bit_send_data_char_posit@data:
   978                           	callstack 0
   979   000054                     vfprintf@ap:
   980                           	callstack 0
   981   000054                     lcd_4bit_send_data_string_posit@data:
   982                           	callstack 0
   983                           
   984                           ; 2 bytes @ 0x18
   985   000054                     	ds	1
   986   000055                     lcd_4bit_send_data_char_posit@ret:
   987                           	callstack 0
   988   000055                     vfprintf@cfmt:
   989                           	callstack 0
   990                           
   991                           ; 1 bytes @ 0x19
   992   000055                     	ds	1
   993   000056                     ??_key_pad_get:
   994   000056                     ?_sprintf:
   995                           	callstack 0
   996   000056                     lcd_4bit_send_data_string_posit@ret:
   997                           	callstack 0
   998   000056                     sprintf@s:
   999                           	callstack 0
  1000                           
  1001                           ; 1 bytes @ 0x1A
  1002   000056                     	ds	1
  1003   000057                     sprintf@fmt:
  1004                           	callstack 0
  1005                           
  1006                           ; 1 bytes @ 0x1B
  1007   000057                     	ds	1
  1008   000058                     key_pad_get@i:
  1009                           	callstack 0
  1010                           
  1011                           ; 2 bytes @ 0x1C
  1012   000058                     	ds	2
  1013   00005A                     sprintf@ap:
  1014                           	callstack 0
  1015                           
  1016                           ; 1 bytes @ 0x1E
  1017   00005A                     	ds	1
  1018   00005B                     sprintf@f:
  1019                           	callstack 0
  1020                           
  1021                           ; 12 bytes @ 0x1F
  1022   00005B                     	ds	12
  1023   000067                     convert_uint8_to_string@str:
  1024                           	callstack 0
  1025                           
  1026                           ; 1 bytes @ 0x2B
  1027   000067                     	ds	1
  1028   000068                     convert_uint8_to_string@num:
  1029                           	callstack 0
  1030                           
  1031                           ; 1 bytes @ 0x2C
  1032   000068                     	ds	1
  1033   000069                     ??_main:
  1034                           
  1035                           ; 1 bytes @ 0x2D
  1036   000069                     	ds	2
  1037                           
  1038 ;;
  1039 ;;Main: autosize = 0, tempsize = 2, incstack = 0, save=0
  1040 ;;
  1041 ;; *************** function _main *****************
  1042 ;; Defined at:
  1043 ;;		line 120 in file "application.c"
  1044 ;; Parameters:    Size  Location     Type
  1045 ;;		None
  1046 ;; Auto vars:     Size  Location     Type
  1047 ;;  i               2    0[BANK0 ] int 
  1048 ;;  k               2    2[BANK0 ] int 
  1049 ;; Return value:  Size  Location     Type
  1050 ;;                  2  1778[None  ] int 
  1051 ;; Registers used:
  1052 ;;		wreg, fsr0l, fsr0h, fsr1l, fsr1h, fsr2l, fsr2h, status,2, status,0, tblptrl, tblptrh, tblptru, prodl, prodh, cstack
  1053 ;; Tracked objects:
  1054 ;;		On entry : 0/0
  1055 ;;		On exit  : 0/0
  1056 ;;		Unchanged: 0/0
  1057 ;; Data sizes:     COMRAM   BANK0   BANK1   BANK2   BANK3   BANK4   BANK5   BANK6   BANK7   BANK8   BANK9  BANK10  BANK1
      +1  BANK12  BANK13  BANK14  BANK15
  1058 ;;      Params:         0       0       0       0       0       0       0       0       0       0       0       0       
      +0       0       0       0       0
  1059 ;;      Locals:         0       4       0       0       0       0       0       0       0       0       0       0       
      +0       0       0       0       0
  1060 ;;      Temps:          2       0       0       0       0       0       0       0       0       0       0       0       
      +0       0       0       0       0
  1061 ;;      Totals:         2       4       0       0       0       0       0       0       0       0       0       0       
      +0       0       0       0       0
  1062 ;;Total ram usage:        6 bytes
  1063 ;; Hardware stack levels required when called: 8
  1064 ;; This function calls:
  1065 ;;		_EEPROM_Read_Data
  1066 ;;		_EEPROM_Write_Data
  1067 ;;		_app_initialize
  1068 ;;		_convert_uint8_to_string
  1069 ;;		_key_pad_get
  1070 ;;		_lcd_4bit_send_command
  1071 ;;		_lcd_4bit_send_data_char
  1072 ;;		_lcd_4bit_send_data_string
  1073 ;;		_lcd_4bit_send_data_string_posit
  1074 ;;		_led_on
  1075 ;;		_motor_move_left
  1076 ;;		_motor_move_right
  1077 ;; This function is called by:
  1078 ;;		Startup code after reset
  1079 ;; This function uses a non-reentrant model
  1080 ;;
  1081                           
  1082                           	psect	text0
  1083   001462                     __ptext0:
  1084                           	callstack 0
  1085   001462                     _main:
  1086                           	callstack 23
  1087   001462                     
  1088                           ;application.c: 122:     EEPROM_Read_Data(0x14 , &num_of_incor);
  1089   001462  0E00               	movlw	0
  1090   001464  6E3E               	movwf	(EEPROM_Read_Data@S_Add+1)^0,c
  1091   001466  0E14               	movlw	20
  1092   001468  6E3D               	movwf	EEPROM_Read_Data@S_Add^0,c
  1093   00146A  0E3A               	movlw	low _num_of_incor
  1094   00146C  6E3F               	movwf	EEPROM_Read_Data@ddata^0,c
  1095   00146E  EC51  F013         	call	_EEPROM_Read_Data	;wreg free
  1096   001472                     
  1097                           ;application.c: 123:     app_initialize();
  1098   001472  ECA0  F013         	call	_app_initialize	;wreg free
  1099   001476                     
  1100                           ;application.c: 130:      ret = lcd_4bit_send_data_string_posit(&lcd_2 , 1 ,3 ,"enter pa
      +                          ssword");
  1101   001476  0EED               	movlw	low _lcd_2
  1102   001478  6E51               	movwf	lcd_4bit_send_data_string_posit@lcd^0,c
  1103   00147A  0E01               	movlw	1
  1104   00147C  6E52               	movwf	lcd_4bit_send_data_string_posit@row^0,c
  1105   00147E  0E03               	movlw	3
  1106   001480  6E53               	movwf	lcd_4bit_send_data_string_posit@colunm^0,c
  1107   001482  0E32               	movlw	low STR_4
  1108   001484  6E54               	movwf	lcd_4bit_send_data_string_posit@data^0,c
  1109   001486  5054               	movf	lcd_4bit_send_data_string_posit@data^0,w,c
  1110   001488  A4D8               	btfss	status,2,c
  1111   00148A  0E10               	movlw	high __smallconst
  1112   00148C  6E55               	movwf	(lcd_4bit_send_data_string_posit@data+1)^0,c
  1113   00148E  ECA1  F010         	call	_lcd_4bit_send_data_string_posit	;wreg free
  1114   001492  6E31               	movwf	_ret^0,c
  1115   001494                     
  1116                           ;application.c: 131:      _delay((unsigned long)((500)*(8000000UL/4000.0)));
  1117   001494  0E06               	movlw	6
  1118   001496  6E6A               	movwf	(??_main+1)^0,c
  1119   001498  0E13               	movlw	19
  1120   00149A  6E69               	movwf	??_main^0,c
  1121   00149C  0EAE               	movlw	174
  1122   00149E                     u8067:
  1123   00149E  2EE8               	decfsz	wreg,f,c
  1124   0014A0  D7FE               	bra	u8067
  1125   0014A2  2E69               	decfsz	??_main^0,f,c
  1126   0014A4  D7FC               	bra	u8067
  1127   0014A6  2E6A               	decfsz	(??_main+1)^0,f,c
  1128   0014A8  D7FA               	bra	u8067
  1129   0014AA                     
  1130                           ;application.c: 132:      ret = lcd_4bit_send_command(&lcd_2 , 0x01);
  1131   0014AA  0EED               	movlw	low _lcd_2
  1132   0014AC  6E48               	movwf	lcd_4bit_send_command@lcd^0,c
  1133   0014AE  0E01               	movlw	1
  1134   0014B0  6E49               	movwf	lcd_4bit_send_command@command^0,c
  1135   0014B2  EC5A  F012         	call	_lcd_4bit_send_command	;wreg free
  1136   0014B6  6E31               	movwf	_ret^0,c
  1137   0014B8                     
  1138                           ;application.c: 133:      _delay((unsigned long)((500)*(8000000UL/4000.0)));
  1139   0014B8  0E06               	movlw	6
  1140   0014BA  6E6A               	movwf	(??_main+1)^0,c
  1141   0014BC  0E13               	movlw	19
  1142   0014BE  6E69               	movwf	??_main^0,c
  1143   0014C0  0EAE               	movlw	174
  1144   0014C2                     u8077:
  1145   0014C2  2EE8               	decfsz	wreg,f,c
  1146   0014C4  D7FE               	bra	u8077
  1147   0014C6  2E69               	decfsz	??_main^0,f,c
  1148   0014C8  D7FC               	bra	u8077
  1149   0014CA  2E6A               	decfsz	(??_main+1)^0,f,c
  1150   0014CC  D7FA               	bra	u8077
  1151   0014CE                     
  1152                           ;application.c: 134:      key_pad_get();
  1153   0014CE  EC86  F00E         	call	_key_pad_get	;wreg free
  1154   0014D2                     
  1155                           ;application.c: 135:      for(int k = 0 ; k<4 ; k++){
  1156   0014D2  0E00               	movlw	0
  1157   0014D4  0100               	movlb	0	; () banked
  1158   0014D6  6FF6               	movwf	(main@k+1)& (0+255),b
  1159   0014D8  0E00               	movlw	0
  1160   0014DA  6FF5               	movwf	main@k& (0+255),b
  1161   0014DC                     l8741:
  1162                           
  1163                           ; BSR set to: 0
  1164                           ;application.c: 136:          if(Stored_password[k]==enter_password[k]){
  1165   0014DC  51F5               	movf	main@k& (0+255),w,b
  1166   0014DE  0FB8               	addlw	low _enter_password
  1167   0014E0  6ED9               	movwf	fsr2l,c
  1168   0014E2  6ADA               	clrf	fsr2h,c
  1169   0014E4  51F5               	movf	main@k& (0+255),w,b
  1170   0014E6  0FE0               	addlw	low _Stored_password
  1171   0014E8  6EE1               	movwf	fsr1l,c
  1172   0014EA  6AE2               	clrf	fsr1h,c
  1173   0014EC  50DE               	movf	postinc2,w,c
  1174   0014EE  18E6               	xorwf	postinc1,w,c
  1175   0014F0  A4D8               	btfss	status,2,c
  1176   0014F2  EF7D  F00A         	goto	u8011
  1177   0014F6  EF7F  F00A         	goto	u8010
  1178   0014FA                     u8011:
  1179   0014FA  EF90  F00A         	goto	l8749
  1180   0014FE                     u8010:
  1181   0014FE                     
  1182                           ; BSR set to: 0
  1183                           ;application.c: 137:              value++;
  1184   0014FE  2A30               	incf	_value^0,f,c
  1185   001500                     
  1186                           ; BSR set to: 0
  1187                           ;application.c: 141:      }
  1188   001500  4BF5               	infsnz	main@k& (0+255),f,b
  1189   001502  2BF6               	incf	(main@k+1)& (0+255),f,b
  1190   001504                     
  1191                           ; BSR set to: 0
  1192   001504  BFF6               	btfsc	(main@k+1)& (0+255),7,b
  1193   001506  EF8E  F00A         	goto	u8021
  1194   00150A  51F6               	movf	(main@k+1)& (0+255),w,b
  1195   00150C  E109               	bnz	u8020
  1196   00150E  0E04               	movlw	4
  1197   001510  5DF5               	subwf	main@k& (0+255),w,b
  1198   001512  A0D8               	btfss	status,0,c
  1199   001514  EF8E  F00A         	goto	u8021
  1200   001518  EF90  F00A         	goto	u8020
  1201   00151C                     u8021:
  1202   00151C  EF6E  F00A         	goto	l8741
  1203   001520                     u8020:
  1204   001520                     l8749:
  1205                           
  1206                           ; BSR set to: 0
  1207                           ;application.c: 142:      if(value == 4){
  1208   001520  0E04               	movlw	4
  1209   001522  1830               	xorwf	_value^0,w,c
  1210   001524  A4D8               	btfss	status,2,c
  1211   001526  EF97  F00A         	goto	u8031
  1212   00152A  EF99  F00A         	goto	u8030
  1213   00152E                     u8031:
  1214   00152E  EF07  F00B         	goto	l8779
  1215   001532                     u8030:
  1216   001532                     
  1217                           ; BSR set to: 0
  1218                           ;application.c: 143:          value =0 ;
  1219   001532  0E00               	movlw	0
  1220   001534  6E30               	movwf	_value^0,c
  1221   001536                     
  1222                           ; BSR set to: 0
  1223                           ;application.c: 144:      ret = lcd_4bit_send_data_string_posit(&lcd_2 , 1 ,1 ,"correct 
      +                          password");
  1224   001536  0EED               	movlw	low _lcd_2
  1225   001538  6E51               	movwf	lcd_4bit_send_data_string_posit@lcd^0,c
  1226   00153A  0E01               	movlw	1
  1227   00153C  6E52               	movwf	lcd_4bit_send_data_string_posit@row^0,c
  1228   00153E  0E01               	movlw	1
  1229   001540  6E53               	movwf	lcd_4bit_send_data_string_posit@colunm^0,c
  1230   001542  0E11               	movlw	low STR_5
  1231   001544  6E54               	movwf	lcd_4bit_send_data_string_posit@data^0,c
  1232   001546  5054               	movf	lcd_4bit_send_data_string_posit@data^0,w,c
  1233   001548  A4D8               	btfss	status,2,c
  1234   00154A  0E10               	movlw	high __smallconst
  1235   00154C  6E55               	movwf	(lcd_4bit_send_data_string_posit@data+1)^0,c
  1236   00154E  ECA1  F010         	call	_lcd_4bit_send_data_string_posit	;wreg free
  1237   001552  6E31               	movwf	_ret^0,c
  1238   001554                     
  1239                           ;application.c: 145:       EEPROM_Write_Data( 0x14, 0);
  1240   001554  0E00               	movlw	0
  1241   001556  6E3E               	movwf	(EEPROM_Write_Data@S_Add+1)^0,c
  1242   001558  0E14               	movlw	20
  1243   00155A  6E3D               	movwf	EEPROM_Write_Data@S_Add^0,c
  1244   00155C  0E00               	movlw	0
  1245   00155E  6E3F               	movwf	EEPROM_Write_Data@ddata^0,c
  1246   001560  EC34  F013         	call	_EEPROM_Write_Data	;wreg free
  1247   001564                     
  1248                           ;application.c: 146:         ret = led_on(&green);
  1249   001564  0E7A               	movlw	low _green
  1250   001566  6E45               	movwf	led_on@led^0,c
  1251   001568  ECEC  F010         	call	_led_on	;wreg free
  1252   00156C  6E31               	movwf	_ret^0,c
  1253   00156E                     
  1254                           ;application.c: 148:         motor_move_right(&motor_1);
  1255   00156E  0E78               	movlw	low _motor_1
  1256   001570  6E45               	movwf	motor_move_right@motor^0,c
  1257   001572  EC02  F014         	call	_motor_move_right	;wreg free
  1258   001576                     
  1259                           ;application.c: 149:         motor_move_right(&motor_2);
  1260   001576  0E76               	movlw	low _motor_2
  1261   001578  6E45               	movwf	motor_move_right@motor^0,c
  1262   00157A  EC02  F014         	call	_motor_move_right	;wreg free
  1263   00157E                     
  1264                           ;application.c: 150:        _delay((unsigned long)((1000)*(8000000UL/4000.0)));
  1265   00157E  0E0B               	movlw	11
  1266   001580  6E6A               	movwf	(??_main+1)^0,c
  1267   001582  0E26               	movlw	38
  1268   001584  6E69               	movwf	??_main^0,c
  1269   001586  0E5E               	movlw	94
  1270   001588                     u8087:
  1271   001588  2EE8               	decfsz	wreg,f,c
  1272   00158A  D7FE               	bra	u8087
  1273   00158C  2E69               	decfsz	??_main^0,f,c
  1274   00158E  D7FC               	bra	u8087
  1275   001590  2E6A               	decfsz	(??_main+1)^0,f,c
  1276   001592  D7FA               	bra	u8087
  1277   001594                     
  1278                           ;application.c: 151:        ret = lcd_4bit_send_command(&lcd_2 , 0x01);
  1279   001594  0EED               	movlw	low _lcd_2
  1280   001596  6E48               	movwf	lcd_4bit_send_command@lcd^0,c
  1281   001598  0E01               	movlw	1
  1282   00159A  6E49               	movwf	lcd_4bit_send_command@command^0,c
  1283   00159C  EC5A  F012         	call	_lcd_4bit_send_command	;wreg free
  1284   0015A0  6E31               	movwf	_ret^0,c
  1285   0015A2                     
  1286                           ;application.c: 152:      _delay((unsigned long)((1000)*(8000000UL/4000.0)));
  1287   0015A2  0E0B               	movlw	11
  1288   0015A4  6E6A               	movwf	(??_main+1)^0,c
  1289   0015A6  0E26               	movlw	38
  1290   0015A8  6E69               	movwf	??_main^0,c
  1291   0015AA  0E5E               	movlw	94
  1292   0015AC                     u8097:
  1293   0015AC  2EE8               	decfsz	wreg,f,c
  1294   0015AE  D7FE               	bra	u8097
  1295   0015B0  2E69               	decfsz	??_main^0,f,c
  1296   0015B2  D7FC               	bra	u8097
  1297   0015B4  2E6A               	decfsz	(??_main+1)^0,f,c
  1298   0015B6  D7FA               	bra	u8097
  1299   0015B8                     
  1300                           ;application.c: 154:      ret = lcd_4bit_send_data_string_posit(&lcd_2 , 1 ,1 ,"look doo
      +                          r again");
  1301   0015B8  0EED               	movlw	low _lcd_2
  1302   0015BA  6E51               	movwf	lcd_4bit_send_data_string_posit@lcd^0,c
  1303   0015BC  0E01               	movlw	1
  1304   0015BE  6E52               	movwf	lcd_4bit_send_data_string_posit@row^0,c
  1305   0015C0  0E01               	movlw	1
  1306   0015C2  6E53               	movwf	lcd_4bit_send_data_string_posit@colunm^0,c
  1307   0015C4  0E22               	movlw	low STR_6
  1308   0015C6  6E54               	movwf	lcd_4bit_send_data_string_posit@data^0,c
  1309   0015C8  5054               	movf	lcd_4bit_send_data_string_posit@data^0,w,c
  1310   0015CA  A4D8               	btfss	status,2,c
  1311   0015CC  0E10               	movlw	high __smallconst
  1312   0015CE  6E55               	movwf	(lcd_4bit_send_data_string_posit@data+1)^0,c
  1313   0015D0  ECA1  F010         	call	_lcd_4bit_send_data_string_posit	;wreg free
  1314   0015D4  6E31               	movwf	_ret^0,c
  1315   0015D6                     
  1316                           ;application.c: 155:         motor_move_left(&motor_1);
  1317   0015D6  0E78               	movlw	low _motor_1
  1318   0015D8  6E45               	movwf	motor_move_left@motor^0,c
  1319   0015DA  EC19  F014         	call	_motor_move_left	;wreg free
  1320   0015DE                     
  1321                           ;application.c: 156:         motor_move_left(&motor_2);
  1322   0015DE  0E76               	movlw	low _motor_2
  1323   0015E0  6E45               	movwf	motor_move_left@motor^0,c
  1324   0015E2  EC19  F014         	call	_motor_move_left	;wreg free
  1325   0015E6                     
  1326                           ;application.c: 157:       _delay((unsigned long)((1000)*(8000000UL/4000.0)));
  1327   0015E6  0E0B               	movlw	11
  1328   0015E8  6E6A               	movwf	(??_main+1)^0,c
  1329   0015EA  0E26               	movlw	38
  1330   0015EC  6E69               	movwf	??_main^0,c
  1331   0015EE  0E5E               	movlw	94
  1332   0015F0                     u8107:
  1333   0015F0  2EE8               	decfsz	wreg,f,c
  1334   0015F2  D7FE               	bra	u8107
  1335   0015F4  2E69               	decfsz	??_main^0,f,c
  1336   0015F6  D7FC               	bra	u8107
  1337   0015F8  2E6A               	decfsz	(??_main+1)^0,f,c
  1338   0015FA  D7FA               	bra	u8107
  1339   0015FC                     
  1340                           ;application.c: 158:       ret = lcd_4bit_send_command(&lcd_2 , 0x01);
  1341   0015FC  0EED               	movlw	low _lcd_2
  1342   0015FE  6E48               	movwf	lcd_4bit_send_command@lcd^0,c
  1343   001600  0E01               	movlw	1
  1344   001602  6E49               	movwf	lcd_4bit_send_command@command^0,c
  1345   001604  EC5A  F012         	call	_lcd_4bit_send_command	;wreg free
  1346   001608  6E31               	movwf	_ret^0,c
  1347                           
  1348                           ;application.c: 159:      }else {
  1349   00160A  EF9E  F00B         	goto	l1789
  1350   00160E                     l8779:
  1351                           
  1352                           ; BSR set to: 0
  1353                           ;application.c: 161:       ret = lcd_4bit_send_data_string_posit(&lcd_2 , 1 ,1 ,"incorre
      +                          ct");
  1354   00160E  0EED               	movlw	low _lcd_2
  1355   001610  6E51               	movwf	lcd_4bit_send_data_string_posit@lcd^0,c
  1356   001612  0E01               	movlw	1
  1357   001614  6E52               	movwf	lcd_4bit_send_data_string_posit@row^0,c
  1358   001616  0E01               	movlw	1
  1359   001618  6E53               	movwf	lcd_4bit_send_data_string_posit@colunm^0,c
  1360   00161A  0E4E               	movlw	low STR_7
  1361   00161C  6E54               	movwf	lcd_4bit_send_data_string_posit@data^0,c
  1362   00161E  5054               	movf	lcd_4bit_send_data_string_posit@data^0,w,c
  1363   001620  A4D8               	btfss	status,2,c
  1364   001622  0E10               	movlw	high __smallconst
  1365   001624  6E55               	movwf	(lcd_4bit_send_data_string_posit@data+1)^0,c
  1366   001626  ECA1  F010         	call	_lcd_4bit_send_data_string_posit	;wreg free
  1367   00162A  6E31               	movwf	_ret^0,c
  1368   00162C                     
  1369                           ;application.c: 162:      ret = led_on(&red);
  1370   00162C  0E3B               	movlw	low _red
  1371   00162E  6E45               	movwf	led_on@led^0,c
  1372   001630  ECEC  F010         	call	_led_on	;wreg free
  1373   001634  6E31               	movwf	_ret^0,c
  1374   001636                     
  1375                           ;application.c: 163:        _delay((unsigned long)((1000)*(8000000UL/4000.0)));
  1376   001636  0E0B               	movlw	11
  1377   001638  6E6A               	movwf	(??_main+1)^0,c
  1378   00163A  0E26               	movlw	38
  1379   00163C  6E69               	movwf	??_main^0,c
  1380   00163E  0E5E               	movlw	94
  1381   001640                     u8117:
  1382   001640  2EE8               	decfsz	wreg,f,c
  1383   001642  D7FE               	bra	u8117
  1384   001644  2E69               	decfsz	??_main^0,f,c
  1385   001646  D7FC               	bra	u8117
  1386   001648  2E6A               	decfsz	(??_main+1)^0,f,c
  1387   00164A  D7FA               	bra	u8117
  1388   00164C                     
  1389                           ;application.c: 165:       ret = lcd_4bit_send_command(&lcd_2 , 0x01);
  1390   00164C  0EED               	movlw	low _lcd_2
  1391   00164E  6E48               	movwf	lcd_4bit_send_command@lcd^0,c
  1392   001650  0E01               	movlw	1
  1393   001652  6E49               	movwf	lcd_4bit_send_command@command^0,c
  1394   001654  EC5A  F012         	call	_lcd_4bit_send_command	;wreg free
  1395   001658  6E31               	movwf	_ret^0,c
  1396   00165A                     
  1397                           ;application.c: 166:      _delay((unsigned long)((1000)*(8000000UL/4000.0)));
  1398   00165A  0E0B               	movlw	11
  1399   00165C  6E6A               	movwf	(??_main+1)^0,c
  1400   00165E  0E26               	movlw	38
  1401   001660  6E69               	movwf	??_main^0,c
  1402   001662  0E5E               	movlw	94
  1403   001664                     u8127:
  1404   001664  2EE8               	decfsz	wreg,f,c
  1405   001666  D7FE               	bra	u8127
  1406   001668  2E69               	decfsz	??_main^0,f,c
  1407   00166A  D7FC               	bra	u8127
  1408   00166C  2E6A               	decfsz	(??_main+1)^0,f,c
  1409   00166E  D7FA               	bra	u8127
  1410   001670                     
  1411                           ;application.c: 167:      EEPROM_Write_Data( 0x14, ++num_of_incor);
  1412   001670  0E00               	movlw	0
  1413   001672  6E3E               	movwf	(EEPROM_Write_Data@S_Add+1)^0,c
  1414   001674  0E14               	movlw	20
  1415   001676  6E3D               	movwf	EEPROM_Write_Data@S_Add^0,c
  1416   001678  2A3A               	incf	_num_of_incor^0,f,c
  1417   00167A  C03A  F03F         	movff	_num_of_incor,EEPROM_Write_Data@ddata
  1418   00167E  EC34  F013         	call	_EEPROM_Write_Data	;wreg free
  1419   001682                     
  1420                           ;application.c: 168:      if( 3 == num_of_incor){
  1421   001682  0E03               	movlw	3
  1422   001684  183A               	xorwf	_num_of_incor^0,w,c
  1423   001686  A4D8               	btfss	status,2,c
  1424   001688  EF48  F00B         	goto	u8041
  1425   00168C  EF4A  F00B         	goto	u8040
  1426   001690                     u8041:
  1427   001690  EF9E  F00B         	goto	l1789
  1428   001694                     u8040:
  1429   001694                     
  1430                           ;application.c: 169:          EEPROM_Write_Data( 0x14, 0);
  1431   001694  0E00               	movlw	0
  1432   001696  6E3E               	movwf	(EEPROM_Write_Data@S_Add+1)^0,c
  1433   001698  0E14               	movlw	20
  1434   00169A  6E3D               	movwf	EEPROM_Write_Data@S_Add^0,c
  1435   00169C  0E00               	movlw	0
  1436   00169E  6E3F               	movwf	EEPROM_Write_Data@ddata^0,c
  1437   0016A0  EC34  F013         	call	_EEPROM_Write_Data	;wreg free
  1438   0016A4                     
  1439                           ;application.c: 170:           ret = lcd_4bit_send_data_string(&lcd_2 ,"please wait:");
  1440   0016A4  0EED               	movlw	low _lcd_2
  1441   0016A6  6E4B               	movwf	lcd_4bit_send_data_string@lcd^0,c
  1442   0016A8  0E41               	movlw	low STR_8
  1443   0016AA  6E4C               	movwf	lcd_4bit_send_data_string@data^0,c
  1444   0016AC  EC88  F012         	call	_lcd_4bit_send_data_string	;wreg free
  1445   0016B0  6E31               	movwf	_ret^0,c
  1446   0016B2                     
  1447                           ;application.c: 171:           for(int i = 30 ; i>=0 ; i--){
  1448   0016B2  0E00               	movlw	0
  1449   0016B4  0100               	movlb	0	; () banked
  1450   0016B6  6FF4               	movwf	(main@i+1)& (0+255),b
  1451   0016B8  0E1E               	movlw	30
  1452   0016BA  6FF3               	movwf	main@i& (0+255),b
  1453   0016BC                     l8803:
  1454                           
  1455                           ; BSR set to: 0
  1456                           ;application.c: 172:               convert_uint8_to_string(i , &str);
  1457   0016BC  0EBD               	movlw	low _str
  1458   0016BE  6E67               	movwf	convert_uint8_to_string@str^0,c
  1459   0016C0  51F3               	movf	main@i& (0+255),w,b
  1460   0016C2  ECB5  F012         	call	_convert_uint8_to_string
  1461   0016C6                     
  1462                           ;application.c: 173:            ret = lcd_4bit_send_data_string_posit(&lcd_2 , 1 ,13 ,st
      +                          r);
  1463   0016C6  0EED               	movlw	low _lcd_2
  1464   0016C8  6E51               	movwf	lcd_4bit_send_data_string_posit@lcd^0,c
  1465   0016CA  0E01               	movlw	1
  1466   0016CC  6E52               	movwf	lcd_4bit_send_data_string_posit@row^0,c
  1467   0016CE  0E0D               	movlw	13
  1468   0016D0  6E53               	movwf	lcd_4bit_send_data_string_posit@colunm^0,c
  1469   0016D2  0EBD               	movlw	low _str
  1470   0016D4  6E54               	movwf	lcd_4bit_send_data_string_posit@data^0,c
  1471   0016D6  6A55               	clrf	(lcd_4bit_send_data_string_posit@data+1)^0,c
  1472   0016D8  ECA1  F010         	call	_lcd_4bit_send_data_string_posit	;wreg free
  1473   0016DC  6E31               	movwf	_ret^0,c
  1474   0016DE                     
  1475                           ;application.c: 174:            ret = lcd_4bit_send_data_char(&lcd_2 ,' ');
  1476   0016DE  0EED               	movlw	low _lcd_2
  1477   0016E0  6E48               	movwf	lcd_4bit_send_data_char@lcd^0,c
  1478   0016E2  0E20               	movlw	32
  1479   0016E4  6E49               	movwf	lcd_4bit_send_data_char@data^0,c
  1480   0016E6  EC2C  F012         	call	_lcd_4bit_send_data_char	;wreg free
  1481   0016EA  6E31               	movwf	_ret^0,c
  1482   0016EC                     
  1483                           ;application.c: 175:            _delay((unsigned long)((1000)*(8000000UL/4000.0)));
  1484   0016EC  0E0B               	movlw	11
  1485   0016EE  6E6A               	movwf	(??_main+1)^0,c
  1486   0016F0  0E26               	movlw	38
  1487   0016F2  6E69               	movwf	??_main^0,c
  1488   0016F4  0E5E               	movlw	94
  1489   0016F6                     u8137:
  1490   0016F6  2EE8               	decfsz	wreg,f,c
  1491   0016F8  D7FE               	bra	u8137
  1492   0016FA  2E69               	decfsz	??_main^0,f,c
  1493   0016FC  D7FC               	bra	u8137
  1494   0016FE  2E6A               	decfsz	(??_main+1)^0,f,c
  1495   001700  D7FA               	bra	u8137
  1496   001702                     
  1497                           ;application.c: 177:           }
  1498   001702  0100               	movlb	0	; () banked
  1499   001704  07F3               	decf	main@i& (0+255),f,b
  1500   001706  A0D8               	btfss	status,0,c
  1501   001708  07F4               	decf	(main@i+1)& (0+255),f,b
  1502   00170A                     
  1503                           ; BSR set to: 0
  1504   00170A  BFF4               	btfsc	(main@i+1)& (0+255),7,b
  1505   00170C  EF8C  F00B         	goto	u8050
  1506   001710  EF8A  F00B         	goto	u8051
  1507   001714                     u8051:
  1508   001714  EF5E  F00B         	goto	l8803
  1509   001718                     u8050:
  1510   001718                     
  1511                           ; BSR set to: 0
  1512                           ;application.c: 178:          ret = lcd_4bit_send_command(&lcd_2 , 0x01);
  1513   001718  0EED               	movlw	low _lcd_2
  1514   00171A  6E48               	movwf	lcd_4bit_send_command@lcd^0,c
  1515   00171C  0E01               	movlw	1
  1516   00171E  6E49               	movwf	lcd_4bit_send_command@command^0,c
  1517   001720  EC5A  F012         	call	_lcd_4bit_send_command	;wreg free
  1518   001724  6E31               	movwf	_ret^0,c
  1519   001726                     
  1520                           ;application.c: 179:           _delay((unsigned long)((1000)*(8000000UL/4000.0)));
  1521   001726  0E0B               	movlw	11
  1522   001728  6E6A               	movwf	(??_main+1)^0,c
  1523   00172A  0E26               	movlw	38
  1524   00172C  6E69               	movwf	??_main^0,c
  1525   00172E  0E5E               	movlw	94
  1526   001730                     u8147:
  1527   001730  2EE8               	decfsz	wreg,f,c
  1528   001732  D7FE               	bra	u8147
  1529   001734  2E69               	decfsz	??_main^0,f,c
  1530   001736  D7FC               	bra	u8147
  1531   001738  2E6A               	decfsz	(??_main+1)^0,f,c
  1532   00173A  D7FA               	bra	u8147
  1533   00173C                     l1789:
  1534   00173C  EF07  F000         	goto	start
  1535   001740                     __end_of_main:
  1536                           	callstack 0
  1537                           
  1538 ;; *************** function _motor_move_right *****************
  1539 ;; Defined at:
  1540 ;;		line 26 in file "ECU_Layer/DC_MOTOR/ecu_dc_motor.c"
  1541 ;; Parameters:    Size  Location     Type
  1542 ;;  motor           1    9[COMRAM] PTR const struct .
  1543 ;;		 -> motor_2(2), motor_1(2), 
  1544 ;; Auto vars:     Size  Location     Type
  1545 ;;  ret             1    0        unsigned char 
  1546 ;; Return value:  Size  Location     Type
  1547 ;;                  1    wreg      unsigned char 
  1548 ;; Registers used:
  1549 ;;		wreg, fsr2l, fsr2h, status,2, status,0, prodl, prodh, cstack
  1550 ;; Tracked objects:
  1551 ;;		On entry : 0/0
  1552 ;;		On exit  : 0/0
  1553 ;;		Unchanged: 0/0
  1554 ;; Data sizes:     COMRAM   BANK0   BANK1   BANK2   BANK3   BANK4   BANK5   BANK6   BANK7   BANK8   BANK9  BANK10  BANK1
      +1  BANK12  BANK13  BANK14  BANK15
  1555 ;;      Params:         1       0       0       0       0       0       0       0       0       0       0       0       
      +0       0       0       0       0
  1556 ;;      Locals:         0       0       0       0       0       0       0       0       0       0       0       0       
      +0       0       0       0       0
  1557 ;;      Temps:          0       0       0       0       0       0       0       0       0       0       0       0       
      +0       0       0       0       0
  1558 ;;      Totals:         1       0       0       0       0       0       0       0       0       0       0       0       
      +0       0       0       0       0
  1559 ;;Total ram usage:        1 bytes
  1560 ;; Hardware stack levels used: 1
  1561 ;; Hardware stack levels required when called: 3
  1562 ;; This function calls:
  1563 ;;		_gpio_pin_write_logic
  1564 ;; This function is called by:
  1565 ;;		_main
  1566 ;; This function uses a non-reentrant model
  1567 ;;
  1568                           
  1569                           	psect	text1
  1570   002804                     __ptext1:
  1571                           	callstack 0
  1572   002804                     _motor_move_right:
  1573                           	callstack 27
  1574   002804                     
  1575                           ;ECU_Layer/DC_MOTOR/ecu_dc_motor.c: 28:     if(((void*)0)== motor)
  1576   002804  5045               	movf	motor_move_right@motor^0,w,c
  1577   002806  A4D8               	btfss	status,2,c
  1578   002808  EF08  F014         	goto	u7421
  1579   00280C  EF0A  F014         	goto	u7420
  1580   002810                     u7421:
  1581   002810  EF0C  F014         	goto	l8135
  1582   002814                     u7420:
  1583   002814                     
  1584                           ;ECU_Layer/DC_MOTOR/ecu_dc_motor.c: 31:     }else
  1585   002814  EF18  F014         	goto	l226
  1586   002818                     l8135:
  1587                           
  1588                           ;ECU_Layer/DC_MOTOR/ecu_dc_motor.c: 32:     {;ECU_Layer/DC_MOTOR/ecu_dc_motor.c: 33:    
      +                               gpio_pin_write_logic(&(motor->motors[0]),LOGIC_HIGH);
  1589   002818  C045  F03D         	movff	motor_move_right@motor,gpio_pin_write_logic@_pin_t
  1590   00281C  0E01               	movlw	1
  1591   00281E  6E3E               	movwf	gpio_pin_write_logic@logic^0,c
  1592   002820  EC14  F00D         	call	_gpio_pin_write_logic	;wreg free
  1593                           
  1594                           ;ECU_Layer/DC_MOTOR/ecu_dc_motor.c: 34:         gpio_pin_write_logic(&(motor->motors[1])
      +                          , LOGIC_LOW );
  1595   002824  2845               	incf	motor_move_right@motor^0,w,c
  1596   002826  6E3D               	movwf	gpio_pin_write_logic@_pin_t^0,c
  1597   002828  0E00               	movlw	0
  1598   00282A  6E3E               	movwf	gpio_pin_write_logic@logic^0,c
  1599   00282C  EC14  F00D         	call	_gpio_pin_write_logic	;wreg free
  1600   002830                     l226:
  1601   002830  0012               	return		;funcret
  1602   002832                     __end_of_motor_move_right:
  1603                           	callstack 0
  1604                           
  1605 ;; *************** function _motor_move_left *****************
  1606 ;; Defined at:
  1607 ;;		line 40 in file "ECU_Layer/DC_MOTOR/ecu_dc_motor.c"
  1608 ;; Parameters:    Size  Location     Type
  1609 ;;  motor           1    9[COMRAM] PTR const struct .
  1610 ;;		 -> motor_2(2), motor_1(2), 
  1611 ;; Auto vars:     Size  Location     Type
  1612 ;;  ret             1    0        unsigned char 
  1613 ;; Return value:  Size  Location     Type
  1614 ;;                  1    wreg      unsigned char 
  1615 ;; Registers used:
  1616 ;;		wreg, fsr2l, fsr2h, status,2, status,0, prodl, prodh, cstack
  1617 ;; Tracked objects:
  1618 ;;		On entry : 0/0
  1619 ;;		On exit  : 0/0
  1620 ;;		Unchanged: 0/0
  1621 ;; Data sizes:     COMRAM   BANK0   BANK1   BANK2   BANK3   BANK4   BANK5   BANK6   BANK7   BANK8   BANK9  BANK10  BANK1
      +1  BANK12  BANK13  BANK14  BANK15
  1622 ;;      Params:         1       0       0       0       0       0       0       0       0       0       0       0       
      +0       0       0       0       0
  1623 ;;      Locals:         0       0       0       0       0       0       0       0       0       0       0       0       
      +0       0       0       0       0
  1624 ;;      Temps:          0       0       0       0       0       0       0       0       0       0       0       0       
      +0       0       0       0       0
  1625 ;;      Totals:         1       0       0       0       0       0       0       0       0       0       0       0       
      +0       0       0       0       0
  1626 ;;Total ram usage:        1 bytes
  1627 ;; Hardware stack levels used: 1
  1628 ;; Hardware stack levels required when called: 3
  1629 ;; This function calls:
  1630 ;;		_gpio_pin_write_logic
  1631 ;; This function is called by:
  1632 ;;		_main
  1633 ;; This function uses a non-reentrant model
  1634 ;;
  1635                           
  1636                           	psect	text2
  1637   002832                     __ptext2:
  1638                           	callstack 0
  1639   002832                     _motor_move_left:
  1640                           	callstack 27
  1641   002832                     
  1642                           ;ECU_Layer/DC_MOTOR/ecu_dc_motor.c: 42:     if(((void*)0)== motor)
  1643   002832  5045               	movf	motor_move_left@motor^0,w,c
  1644   002834  A4D8               	btfss	status,2,c
  1645   002836  EF1F  F014         	goto	u7431
  1646   00283A  EF21  F014         	goto	u7430
  1647   00283E                     u7431:
  1648   00283E  EF23  F014         	goto	l8145
  1649   002842                     u7430:
  1650   002842                     
  1651                           ;ECU_Layer/DC_MOTOR/ecu_dc_motor.c: 45:     }else
  1652   002842  EF2F  F014         	goto	l231
  1653   002846                     l8145:
  1654                           
  1655                           ;ECU_Layer/DC_MOTOR/ecu_dc_motor.c: 46:     {;ECU_Layer/DC_MOTOR/ecu_dc_motor.c: 47:    
      +                            gpio_pin_write_logic(&(motor->motors[0]),LOGIC_LOW);
  1656   002846  C045  F03D         	movff	motor_move_left@motor,gpio_pin_write_logic@_pin_t
  1657   00284A  0E00               	movlw	0
  1658   00284C  6E3E               	movwf	gpio_pin_write_logic@logic^0,c
  1659   00284E  EC14  F00D         	call	_gpio_pin_write_logic	;wreg free
  1660                           
  1661                           ;ECU_Layer/DC_MOTOR/ecu_dc_motor.c: 48:         gpio_pin_write_logic(&(motor->motors[1])
      +                          ,LOGIC_HIGH);
  1662   002852  2845               	incf	motor_move_left@motor^0,w,c
  1663   002854  6E3D               	movwf	gpio_pin_write_logic@_pin_t^0,c
  1664   002856  0E01               	movlw	1
  1665   002858  6E3E               	movwf	gpio_pin_write_logic@logic^0,c
  1666   00285A  EC14  F00D         	call	_gpio_pin_write_logic	;wreg free
  1667   00285E                     l231:
  1668   00285E  0012               	return		;funcret
  1669   002860                     __end_of_motor_move_left:
  1670                           	callstack 0
  1671                           
  1672 ;; *************** function _led_on *****************
  1673 ;; Defined at:
  1674 ;;		line 22 in file "ECU_Layer/LED/ecu_led.c"
  1675 ;; Parameters:    Size  Location     Type
  1676 ;;  led             1    9[COMRAM] PTR const struct .
  1677 ;;		 -> red(1), green(1), 
  1678 ;; Auto vars:     Size  Location     Type
  1679 ;;  obj             1   12[COMRAM] struct .
  1680 ;;  ret             1   11[COMRAM] unsigned char 
  1681 ;; Return value:  Size  Location     Type
  1682 ;;                  1    wreg      unsigned char 
  1683 ;; Registers used:
  1684 ;;		wreg, fsr2l, fsr2h, status,2, status,0, prodl, prodh, cstack
  1685 ;; Tracked objects:
  1686 ;;		On entry : 0/0
  1687 ;;		On exit  : 0/0
  1688 ;;		Unchanged: 0/0
  1689 ;; Data sizes:     COMRAM   BANK0   BANK1   BANK2   BANK3   BANK4   BANK5   BANK6   BANK7   BANK8   BANK9  BANK10  BANK1
      +1  BANK12  BANK13  BANK14  BANK15
  1690 ;;      Params:         1       0       0       0       0       0       0       0       0       0       0       0       
      +0       0       0       0       0
  1691 ;;      Locals:         2       0       0       0       0       0       0       0       0       0       0       0       
      +0       0       0       0       0
  1692 ;;      Temps:          1       0       0       0       0       0       0       0       0       0       0       0       
      +0       0       0       0       0
  1693 ;;      Totals:         4       0       0       0       0       0       0       0       0       0       0       0       
      +0       0       0       0       0
  1694 ;;Total ram usage:        4 bytes
  1695 ;; Hardware stack levels used: 1
  1696 ;; Hardware stack levels required when called: 3
  1697 ;; This function calls:
  1698 ;;		_gpio_pin_write_logic
  1699 ;; This function is called by:
  1700 ;;		_main
  1701 ;; This function uses a non-reentrant model
  1702 ;;
  1703                           
  1704                           	psect	text3
  1705   0021D8                     __ptext3:
  1706                           	callstack 0
  1707   0021D8                     _led_on:
  1708                           	callstack 27
  1709   0021D8                     
  1710                           ;ECU_Layer/LED/ecu_led.c: 23: Std_ReturnType ret = (Std_ReturnType)0x01;
  1711   0021D8  0E01               	movlw	1
  1712   0021DA  6E47               	movwf	led_on@ret^0,c
  1713                           
  1714                           ;ECU_Layer/LED/ecu_led.c: 24: if(((void*)0)==led)
  1715   0021DC  5045               	movf	led_on@led^0,w,c
  1716   0021DE  A4D8               	btfss	status,2,c
  1717   0021E0  EFF4  F010         	goto	u7441
  1718   0021E4  EFF6  F010         	goto	u7440
  1719   0021E8                     u7441:
  1720   0021E8  EFFA  F010         	goto	l287
  1721   0021EC                     u7440:
  1722   0021EC                     
  1723                           ;ECU_Layer/LED/ecu_led.c: 25: { ret = (Std_ReturnType)0x00;
  1724   0021EC  0E00               	movlw	0
  1725   0021EE  6E47               	movwf	led_on@ret^0,c
  1726                           
  1727                           ;ECU_Layer/LED/ecu_led.c: 26: }
  1728   0021F0  EF25  F011         	goto	l8163
  1729   0021F4                     l287:
  1730                           
  1731                           ;ECU_Layer/LED/ecu_led.c: 28: pin_config_t obj ={ .port = led->port , .pin = led->pin , 
      +                          .logic =led->statu ,.direction = OUTPUT } ;
  1732   0021F4  C038  F048         	movff	led_on@F3059,led_on@obj
  1733   0021F8  5045               	movf	led_on@led^0,w,c
  1734   0021FA  6ED9               	movwf	fsr2l,c
  1735   0021FC  6ADA               	clrf	fsr2h,c
  1736   0021FE  50DF               	movf	223,w,c
  1737   002200  0B0F               	andlw	15
  1738   002202  6E46               	movwf	??_led_on^0,c
  1739   002204  5048               	movf	led_on@obj^0,w,c
  1740   002206  1846               	xorwf	??_led_on^0,w,c
  1741   002208  0BF8               	andlw	-8
  1742   00220A  1846               	xorwf	??_led_on^0,w,c
  1743   00220C  6E48               	movwf	led_on@obj^0,c
  1744   00220E  5045               	movf	led_on@led^0,w,c
  1745   002210  6ED9               	movwf	fsr2l,c
  1746   002212  6ADA               	clrf	fsr2h,c
  1747   002214  38DF               	swapf	223,w,c
  1748   002216  32E8               	rrcf	wreg,f,c
  1749   002218  0B07               	andlw	7
  1750   00221A  6E46               	movwf	??_led_on^0,c
  1751   00221C  4646               	rlncf	??_led_on^0,f,c
  1752   00221E  4646               	rlncf	??_led_on^0,f,c
  1753   002220  4646               	rlncf	??_led_on^0,f,c
  1754   002222  5048               	movf	led_on@obj^0,w,c
  1755   002224  1846               	xorwf	??_led_on^0,w,c
  1756   002226  0BC7               	andlw	-57
  1757   002228  1846               	xorwf	??_led_on^0,w,c
  1758   00222A  6E48               	movwf	led_on@obj^0,c
  1759   00222C  9C48               	bcf	led_on@obj^0,6,c
  1760   00222E  5045               	movf	led_on@led^0,w,c
  1761   002230  6ED9               	movwf	fsr2l,c
  1762   002232  6ADA               	clrf	fsr2h,c
  1763   002234  A8DF               	btfss	indf2,4,c
  1764   002236  D002               	bra	u7455
  1765   002238  8E48               	bsf	led_on@obj^0,7,c
  1766   00223A  D001               	bra	u7457
  1767   00223C                     u7455:
  1768   00223C  9E48               	bcf	led_on@obj^0,7,c
  1769   00223E                     u7457:
  1770   00223E                     
  1771                           ;ECU_Layer/LED/ecu_led.c: 30:     gpio_pin_write_logic(&obj,LOGIC_HIGH);
  1772   00223E  0E48               	movlw	low led_on@obj
  1773   002240  6E3D               	movwf	gpio_pin_write_logic@_pin_t^0,c
  1774   002242  0E01               	movlw	1
  1775   002244  6E3E               	movwf	gpio_pin_write_logic@logic^0,c
  1776   002246  EC14  F00D         	call	_gpio_pin_write_logic	;wreg free
  1777   00224A                     l8163:
  1778                           
  1779                           ;ECU_Layer/LED/ecu_led.c: 32: return ret;
  1780   00224A  5047               	movf	led_on@ret^0,w,c
  1781   00224C  0012               	return		;funcret
  1782   00224E                     __end_of_led_on:
  1783                           	callstack 0
  1784                           
  1785 ;; *************** function _lcd_4bit_send_data_string_posit *****************
  1786 ;; Defined at:
  1787 ;;		line 100 in file "ECU_Layer/CHR_LCD/ecu_chr_lcd.c"
  1788 ;; Parameters:    Size  Location     Type
  1789 ;;  lcd             1   21[COMRAM] PTR const struct .
  1790 ;;		 -> lcd_2(6), 
  1791 ;;  row             1   22[COMRAM] unsigned char 
  1792 ;;  colunm          1   23[COMRAM] unsigned char 
  1793 ;;  data            2   24[COMRAM] PTR unsigned char 
  1794 ;;		 -> str(5), STR_7(10), STR_6(16), STR_5(17), 
  1795 ;;		 -> STR_4(15), 
  1796 ;; Auto vars:     Size  Location     Type
  1797 ;;  ret             1   26[COMRAM] unsigned char 
  1798 ;; Return value:  Size  Location     Type
  1799 ;;                  1    wreg      unsigned char 
  1800 ;; Registers used:
  1801 ;;		wreg, fsr0l, fsr0h, fsr2l, fsr2h, status,2, status,0, tblptrl, tblptrh, tblptru, prodl, prodh, cstack
  1802 ;; Tracked objects:
  1803 ;;		On entry : 0/0
  1804 ;;		On exit  : 0/0
  1805 ;;		Unchanged: 0/0
  1806 ;; Data sizes:     COMRAM   BANK0   BANK1   BANK2   BANK3   BANK4   BANK5   BANK6   BANK7   BANK8   BANK9  BANK10  BANK1
      +1  BANK12  BANK13  BANK14  BANK15
  1807 ;;      Params:         5       0       0       0       0       0       0       0       0       0       0       0       
      +0       0       0       0       0
  1808 ;;      Locals:         1       0       0       0       0       0       0       0       0       0       0       0       
      +0       0       0       0       0
  1809 ;;      Temps:          0       0       0       0       0       0       0       0       0       0       0       0       
      +0       0       0       0       0
  1810 ;;      Totals:         6       0       0       0       0       0       0       0       0       0       0       0       
      +0       0       0       0       0
  1811 ;;Total ram usage:        6 bytes
  1812 ;; Hardware stack levels used: 1
  1813 ;; Hardware stack levels required when called: 6
  1814 ;; This function calls:
  1815 ;;		_lcd_4bit_send_data_char
  1816 ;;		_lcd_set_cursor_4bit
  1817 ;; This function is called by:
  1818 ;;		_main
  1819 ;; This function uses a non-reentrant model
  1820 ;;
  1821                           
  1822                           	psect	text4
  1823   002142                     __ptext4:
  1824                           	callstack 0
  1825   002142                     _lcd_4bit_send_data_string_posit:
  1826                           	callstack 24
  1827   002142                     
  1828                           ;ECU_Layer/CHR_LCD/ecu_chr_lcd.c: 102:     if((((void*)0)==lcd)){
  1829   002142  5051               	movf	lcd_4bit_send_data_string_posit@lcd^0,w,c
  1830   002144  A4D8               	btfss	status,2,c
  1831   002146  EFA7  F010         	goto	u7311
  1832   00214A  EFA9  F010         	goto	u7310
  1833   00214E                     u7311:
  1834   00214E  EFAD  F010         	goto	l8053
  1835   002152                     u7310:
  1836   002152                     
  1837                           ;ECU_Layer/CHR_LCD/ecu_chr_lcd.c: 103:         ret =(Std_ReturnType)0x00 ;
  1838   002152  0E00               	movlw	0
  1839   002154  6E56               	movwf	lcd_4bit_send_data_string_posit@ret^0,c
  1840                           
  1841                           ;ECU_Layer/CHR_LCD/ecu_chr_lcd.c: 104:     }else {
  1842   002156  EFEA  F010         	goto	l8061
  1843   00215A                     l8053:
  1844                           
  1845                           ;ECU_Layer/CHR_LCD/ecu_chr_lcd.c: 105:          ret = lcd_set_cursor_4bit(lcd ,row , col
      +                          unm);
  1846   00215A  C051  F04B         	movff	lcd_4bit_send_data_string_posit@lcd,lcd_set_cursor_4bit@lcd
  1847   00215E  C052  F04C         	movff	lcd_4bit_send_data_string_posit@row,lcd_set_cursor_4bit@row
  1848   002162  C053  F04D         	movff	lcd_4bit_send_data_string_posit@colunm,lcd_set_cursor_4bit@column
  1849   002166  EC53  F010         	call	_lcd_set_cursor_4bit	;wreg free
  1850   00216A  6E56               	movwf	lcd_4bit_send_data_string_posit@ret^0,c
  1851                           
  1852                           ;ECU_Layer/CHR_LCD/ecu_chr_lcd.c: 106:     while(*data)
  1853   00216C  EFD1  F010         	goto	l8059
  1854   002170                     l8055:
  1855                           
  1856                           ;ECU_Layer/CHR_LCD/ecu_chr_lcd.c: 107:         {;ECU_Layer/CHR_LCD/ecu_chr_lcd.c: 108:  
      +                                     ret = lcd_4bit_send_data_char(lcd , *data++);
  1857   002170  C051  F048         	movff	lcd_4bit_send_data_string_posit@lcd,lcd_4bit_send_data_char@lcd
  1858   002174  C054  FFF6         	movff	lcd_4bit_send_data_string_posit@data,tblptrl
  1859   002178  C055  FFF7         	movff	lcd_4bit_send_data_string_posit@data+1,tblptrh
  1860   00217C  0E00               	movlw	low (__smallconst shr (0+16))
  1861   00217E  6EF8               	movwf	tblptru,c
  1862   002180  0E0F               	movlw	(high __ramtop+-1)
  1863   002182  64F7               	cpfsgt	tblptrh,c
  1864   002184  D003               	bra	u7327
  1865   002186  0008               	tblrd		*
  1866   002188  50F5               	movf	tablat,w,c
  1867   00218A  D005               	bra	u7320
  1868   00218C                     u7327:
  1869   00218C  CFF6 FFE9          	movff	tblptrl,fsr0l
  1870   002190  CFF7 FFEA          	movff	tblptrh,fsr0h
  1871   002194  50EF               	movf	indf0,w,c
  1872   002196                     u7320:
  1873   002196  6E49               	movwf	lcd_4bit_send_data_char@data^0,c
  1874   002198  EC2C  F012         	call	_lcd_4bit_send_data_char	;wreg free
  1875   00219C  6E56               	movwf	lcd_4bit_send_data_string_posit@ret^0,c
  1876   00219E  4A54               	infsnz	lcd_4bit_send_data_string_posit@data^0,f,c
  1877   0021A0  2A55               	incf	(lcd_4bit_send_data_string_posit@data+1)^0,f,c
  1878   0021A2                     l8059:
  1879                           
  1880                           ;ECU_Layer/CHR_LCD/ecu_chr_lcd.c: 106:     while(*data)
  1881   0021A2  C054  FFF6         	movff	lcd_4bit_send_data_string_posit@data,tblptrl
  1882   0021A6  C055  FFF7         	movff	lcd_4bit_send_data_string_posit@data+1,tblptrh
  1883   0021AA  0E00               	movlw	low (__smallconst shr (0+16))
  1884   0021AC  6EF8               	movwf	tblptru,c
  1885   0021AE  0E0F               	movlw	(high __ramtop+-1)
  1886   0021B0  64F7               	cpfsgt	tblptrh,c
  1887   0021B2  D003               	bra	u7337
  1888   0021B4  0008               	tblrd		*
  1889   0021B6  50F5               	movf	tablat,w,c
  1890   0021B8  D005               	bra	u7330
  1891   0021BA                     u7337:
  1892   0021BA  CFF6 FFE9          	movff	tblptrl,fsr0l
  1893   0021BE  CFF7 FFEA          	movff	tblptrh,fsr0h
  1894   0021C2  50EF               	movf	indf0,w,c
  1895   0021C4                     u7330:
  1896   0021C4  0900               	iorlw	0
  1897   0021C6  A4D8               	btfss	status,2,c
  1898   0021C8  EFE8  F010         	goto	u7341
  1899   0021CC  EFEA  F010         	goto	u7340
  1900   0021D0                     u7341:
  1901   0021D0  EFB8  F010         	goto	l8055
  1902   0021D4                     u7340:
  1903   0021D4                     l8061:
  1904                           
  1905                           ;ECU_Layer/CHR_LCD/ecu_chr_lcd.c: 113:     return ret ;
  1906   0021D4  5056               	movf	lcd_4bit_send_data_string_posit@ret^0,w,c
  1907   0021D6  0012               	return		;funcret
  1908   0021D8                     __end_of_lcd_4bit_send_data_string_posit:
  1909                           	callstack 0
  1910                           
  1911 ;; *************** function _lcd_4bit_send_data_string *****************
  1912 ;; Defined at:
  1913 ;;		line 86 in file "ECU_Layer/CHR_LCD/ecu_chr_lcd.c"
  1914 ;; Parameters:    Size  Location     Type
  1915 ;;  lcd             1   15[COMRAM] PTR const struct .
  1916 ;;		 -> lcd_2(6), 
  1917 ;;  data            1   16[COMRAM] PTR unsigned char 
  1918 ;;		 -> STR_8(13), 
  1919 ;; Auto vars:     Size  Location     Type
  1920 ;;  ret             1   17[COMRAM] unsigned char 
  1921 ;; Return value:  Size  Location     Type
  1922 ;;                  1    wreg      unsigned char 
  1923 ;; Registers used:
  1924 ;;		wreg, fsr2l, fsr2h, status,2, status,0, tblptrl, tblptrh, tblptru, prodl, prodh, cstack
  1925 ;; Tracked objects:
  1926 ;;		On entry : 0/0
  1927 ;;		On exit  : 0/0
  1928 ;;		Unchanged: 0/0
  1929 ;; Data sizes:     COMRAM   BANK0   BANK1   BANK2   BANK3   BANK4   BANK5   BANK6   BANK7   BANK8   BANK9  BANK10  BANK1
      +1  BANK12  BANK13  BANK14  BANK15
  1930 ;;      Params:         2       0       0       0       0       0       0       0       0       0       0       0       
      +0       0       0       0       0
  1931 ;;      Locals:         1       0       0       0       0       0       0       0       0       0       0       0       
      +0       0       0       0       0
  1932 ;;      Temps:          0       0       0       0       0       0       0       0       0       0       0       0       
      +0       0       0       0       0
  1933 ;;      Totals:         3       0       0       0       0       0       0       0       0       0       0       0       
      +0       0       0       0       0
  1934 ;;Total ram usage:        3 bytes
  1935 ;; Hardware stack levels used: 1
  1936 ;; Hardware stack levels required when called: 5
  1937 ;; This function calls:
  1938 ;;		_lcd_4bit_send_data_char
  1939 ;; This function is called by:
  1940 ;;		_main
  1941 ;; This function uses a non-reentrant model
  1942 ;;
  1943                           
  1944                           	psect	text5
  1945   002510                     __ptext5:
  1946                           	callstack 0
  1947   002510                     _lcd_4bit_send_data_string:
  1948                           	callstack 25
  1949   002510                     
  1950                           ;ECU_Layer/CHR_LCD/ecu_chr_lcd.c: 87:     Std_ReturnType ret = (Std_ReturnType)0x01 ;
  1951   002510  0E01               	movlw	1
  1952   002512  6E4D               	movwf	lcd_4bit_send_data_string@ret^0,c
  1953                           
  1954                           ;ECU_Layer/CHR_LCD/ecu_chr_lcd.c: 88:     if((((void*)0)==lcd)){
  1955   002514  504B               	movf	lcd_4bit_send_data_string@lcd^0,w,c
  1956   002516  A4D8               	btfss	status,2,c
  1957   002518  EF90  F012         	goto	u7291
  1958   00251C  EF92  F012         	goto	u7290
  1959   002520                     u7291:
  1960   002520  EFA4  F012         	goto	l8043
  1961   002524                     u7290:
  1962   002524                     
  1963                           ;ECU_Layer/CHR_LCD/ecu_chr_lcd.c: 89:         ret =(Std_ReturnType)0x00 ;
  1964   002524  0E00               	movlw	0
  1965   002526  6E4D               	movwf	lcd_4bit_send_data_string@ret^0,c
  1966                           
  1967                           ;ECU_Layer/CHR_LCD/ecu_chr_lcd.c: 90:     }else {
  1968   002528  EFB3  F012         	goto	l8045
  1969   00252C                     l8039:
  1970                           
  1971                           ;ECU_Layer/CHR_LCD/ecu_chr_lcd.c: 92:         {;ECU_Layer/CHR_LCD/ecu_chr_lcd.c: 93:    
      +                                   ret = lcd_4bit_send_data_char(lcd , *data++);
  1972   00252C  C04B  F048         	movff	lcd_4bit_send_data_string@lcd,lcd_4bit_send_data_char@lcd
  1973   002530  C04C  FFF6         	movff	lcd_4bit_send_data_string@data,tblptrl
  1974   002534                     	if	1	;There is more than 1 active tblptr byte
  1975   002534  0E10               	movlw	high __smallconst
  1976   002536  6EF7               	movwf	tblptrh,c
  1977   002538                     	endif
  1978   002538                     	if	1	;Program memory is < 0x10000, tblptru is always zero
  1979   002538  6AF8               	clrf	tblptru,c
  1980   00253A                     	endif
  1981   00253A                     	if	0	;tblptru may be non-zero
  1982   00253A                     	endif
  1983   00253A  0008               	tblrd		*
  1984   00253C  CFF5 F049          	movff	tablat,lcd_4bit_send_data_char@data
  1985   002540  EC2C  F012         	call	_lcd_4bit_send_data_char	;wreg free
  1986   002544  6E4D               	movwf	lcd_4bit_send_data_string@ret^0,c
  1987   002546  2A4C               	incf	lcd_4bit_send_data_string@data^0,f,c
  1988   002548                     l8043:
  1989                           
  1990                           ;ECU_Layer/CHR_LCD/ecu_chr_lcd.c: 91:         while(*data)
  1991   002548  C04C  FFF6         	movff	lcd_4bit_send_data_string@data,tblptrl
  1992   00254C                     	if	1	;There is more than 1 active tblptr byte
  1993   00254C  0E10               	movlw	high __smallconst
  1994   00254E  6EF7               	movwf	tblptrh,c
  1995   002550                     	endif
  1996   002550                     	if	1	;Program memory is < 0x10000, tblptru is always zero
  1997   002550  6AF8               	clrf	tblptru,c
  1998   002552                     	endif
  1999   002552                     	if	0	;tblptru may be non-zero
  2000   002552                     	endif
  2001   002552  0008               	tblrd		*
  2002   002554  50F5               	movf	tablat,w,c
  2003   002556  0900               	iorlw	0
  2004   002558  A4D8               	btfss	status,2,c
  2005   00255A  EFB1  F012         	goto	u7301
  2006   00255E  EFB3  F012         	goto	u7300
  2007   002562                     u7301:
  2008   002562  EF96  F012         	goto	l8039
  2009   002566                     u7300:
  2010   002566                     l8045:
  2011                           
  2012                           ;ECU_Layer/CHR_LCD/ecu_chr_lcd.c: 98:     return ret ;
  2013   002566  504D               	movf	lcd_4bit_send_data_string@ret^0,w,c
  2014   002568  0012               	return		;funcret
  2015   00256A                     __end_of_lcd_4bit_send_data_string:
  2016                           	callstack 0
  2017                           
  2018 ;; *************** function _key_pad_get *****************
  2019 ;; Defined at:
  2020 ;;		line 199 in file "application.c"
  2021 ;; Parameters:    Size  Location     Type
  2022 ;;		None
  2023 ;; Auto vars:     Size  Location     Type
  2024 ;;  i               2   28[COMRAM] int 
  2025 ;; Return value:  Size  Location     Type
  2026 ;;                  1    wreg      void 
  2027 ;; Registers used:
  2028 ;;		wreg, fsr1l, fsr1h, fsr2l, fsr2h, status,2, status,0, tblptrl, tblptrh, tblptru, prodl, prodh, cstack
  2029 ;; Tracked objects:
  2030 ;;		On entry : 0/0
  2031 ;;		On exit  : 0/0
  2032 ;;		Unchanged: 0/0
  2033 ;; Data sizes:     COMRAM   BANK0   BANK1   BANK2   BANK3   BANK4   BANK5   BANK6   BANK7   BANK8   BANK9  BANK10  BANK1
      +1  BANK12  BANK13  BANK14  BANK15
  2034 ;;      Params:         0       0       0       0       0       0       0       0       0       0       0       0       
      +0       0       0       0       0
  2035 ;;      Locals:         2       0       0       0       0       0       0       0       0       0       0       0       
      +0       0       0       0       0
  2036 ;;      Temps:          2       0       0       0       0       0       0       0       0       0       0       0       
      +0       0       0       0       0
  2037 ;;      Totals:         4       0       0       0       0       0       0       0       0       0       0       0       
      +0       0       0       0       0
  2038 ;;Total ram usage:        4 bytes
  2039 ;; Hardware stack levels used: 1
  2040 ;; Hardware stack levels required when called: 7
  2041 ;; This function calls:
  2042 ;;		_keypad_get_value
  2043 ;;		_lcd_4bit_send_data_char_posit
  2044 ;; This function is called by:
  2045 ;;		_main
  2046 ;; This function uses a non-reentrant model
  2047 ;;
  2048                           
  2049                           	psect	text6
  2050   001D0C                     __ptext6:
  2051                           	callstack 0
  2052   001D0C                     _key_pad_get:
  2053                           	callstack 23
  2054   001D0C                     l1797:
  2055   001D0C                     
  2056                           ;application.c: 201:         for(int i= 0 ; i< 4 ; ){
  2057   001D0C  0E00               	movlw	0
  2058   001D0E  6E59               	movwf	(key_pad_get@i+1)^0,c
  2059   001D10  0E00               	movlw	0
  2060   001D12  6E58               	movwf	key_pad_get@i^0,c
  2061   001D14                     l8241:
  2062                           
  2063                           ;application.c: 202:             if(enter_password[i] == 0x0){
  2064   001D14  5058               	movf	key_pad_get@i^0,w,c
  2065   001D16  0FB8               	addlw	low _enter_password
  2066   001D18  6ED9               	movwf	fsr2l,c
  2067   001D1A  6ADA               	clrf	fsr2h,c
  2068   001D1C  50DF               	movf	indf2,w,c
  2069   001D1E  A4D8               	btfss	status,2,c
  2070   001D20  EF94  F00E         	goto	u7481
  2071   001D24  EF96  F00E         	goto	u7480
  2072   001D28                     u7481:
  2073   001D28  EFA0  F00E         	goto	l8245
  2074   001D2C                     u7480:
  2075   001D2C                     
  2076                           ;application.c: 203:         ret = keypad_get_value(&keypad_1 , &enter_password[i]);
  2077   001D2C  0EE5               	movlw	low _keypad_1
  2078   001D2E  6E45               	movwf	keypad_get_value@keypad^0,c
  2079   001D30  5058               	movf	key_pad_get@i^0,w,c
  2080   001D32  0FB8               	addlw	low _enter_password
  2081   001D34  6E46               	movwf	keypad_get_value@value^0,c
  2082   001D36  EC9C  F00D         	call	_keypad_get_value	;wreg free
  2083   001D3A  6E31               	movwf	_ret^0,c
  2084                           
  2085                           ;application.c: 205:             }else{
  2086   001D3C  EFAD  F00E         	goto	l8249
  2087   001D40                     l8245:
  2088                           
  2089                           ;application.c: 207:                 i++;
  2090   001D40  4A58               	infsnz	key_pad_get@i^0,f,c
  2091   001D42  2A59               	incf	(key_pad_get@i+1)^0,f,c
  2092   001D44                     
  2093                           ;application.c: 208:                 _delay((unsigned long)((250)*(8000000UL/4000.0)));
  2094   001D44  0E03               	movlw	3
  2095   001D46  6E57               	movwf	(??_key_pad_get+1)^0,c
  2096   001D48  0E8A               	movlw	138
  2097   001D4A  6E56               	movwf	??_key_pad_get^0,c
  2098   001D4C  0E56               	movlw	86
  2099   001D4E                     u8157:
  2100   001D4E  2EE8               	decfsz	wreg,f,c
  2101   001D50  D7FE               	bra	u8157
  2102   001D52  2E56               	decfsz	??_key_pad_get^0,f,c
  2103   001D54  D7FC               	bra	u8157
  2104   001D56  2E57               	decfsz	(??_key_pad_get+1)^0,f,c
  2105   001D58  D7FA               	bra	u8157
  2106   001D5A                     l8249:
  2107                           
  2108                           ;application.c: 210:             ret= lcd_4bit_send_data_char_posit(&lcd_2 , 2, i+1 ,ent
      +                          er_password[i]);
  2109   001D5A  0EED               	movlw	low _lcd_2
  2110   001D5C  6E51               	movwf	lcd_4bit_send_data_char_posit@lcd^0,c
  2111   001D5E  0E02               	movlw	2
  2112   001D60  6E52               	movwf	lcd_4bit_send_data_char_posit@row^0,c
  2113   001D62  2858               	incf	key_pad_get@i^0,w,c
  2114   001D64  6E53               	movwf	lcd_4bit_send_data_char_posit@colunm^0,c
  2115   001D66  5058               	movf	key_pad_get@i^0,w,c
  2116   001D68  0FB8               	addlw	low _enter_password
  2117   001D6A  6ED9               	movwf	fsr2l,c
  2118   001D6C  6ADA               	clrf	fsr2h,c
  2119   001D6E  50DF               	movf	indf2,w,c
  2120   001D70  6E54               	movwf	lcd_4bit_send_data_char_posit@data^0,c
  2121   001D72  EC16  F013         	call	_lcd_4bit_send_data_char_posit	;wreg free
  2122   001D76  6E31               	movwf	_ret^0,c
  2123   001D78                     
  2124                           ;application.c: 211:            _delay((unsigned long)((1000)*(8000000UL/4000000.0)));
  2125   001D78  0E03               	movlw	3
  2126   001D7A  6E56               	movwf	??_key_pad_get^0,c
  2127   001D7C  0E98               	movlw	152
  2128   001D7E                     u8167:
  2129   001D7E  2EE8               	decfsz	wreg,f,c
  2130   001D80  D7FE               	bra	u8167
  2131   001D82  2E56               	decfsz	??_key_pad_get^0,f,c
  2132   001D84  D7FC               	bra	u8167
  2133   001D86                     
  2134                           ;application.c: 212:             if(enter_password[i]){
  2135   001D86  5058               	movf	key_pad_get@i^0,w,c
  2136   001D88  0FB8               	addlw	low _enter_password
  2137   001D8A  6ED9               	movwf	fsr2l,c
  2138   001D8C  6ADA               	clrf	fsr2h,c
  2139   001D8E  50DF               	movf	indf2,w,c
  2140   001D90  B4D8               	btfsc	status,2,c
  2141   001D92  EFCD  F00E         	goto	u7491
  2142   001D96  EFCF  F00E         	goto	u7490
  2143   001D9A                     u7491:
  2144   001D9A  EFDA  F00E         	goto	l8257
  2145   001D9E                     u7490:
  2146   001D9E                     
  2147                           ;application.c: 213:             ret= lcd_4bit_send_data_char_posit(&lcd_2 , 2, i+1 ,'*'
      +                          );
  2148   001D9E  0EED               	movlw	low _lcd_2
  2149   001DA0  6E51               	movwf	lcd_4bit_send_data_char_posit@lcd^0,c
  2150   001DA2  0E02               	movlw	2
  2151   001DA4  6E52               	movwf	lcd_4bit_send_data_char_posit@row^0,c
  2152   001DA6  2858               	incf	key_pad_get@i^0,w,c
  2153   001DA8  6E53               	movwf	lcd_4bit_send_data_char_posit@colunm^0,c
  2154   001DAA  0E2A               	movlw	42
  2155   001DAC  6E54               	movwf	lcd_4bit_send_data_char_posit@data^0,c
  2156   001DAE  EC16  F013         	call	_lcd_4bit_send_data_char_posit	;wreg free
  2157   001DB2  6E31               	movwf	_ret^0,c
  2158   001DB4                     l8257:
  2159                           
  2160                           ;application.c: 216:         }
  2161   001DB4  BE59               	btfsc	(key_pad_get@i+1)^0,7,c
  2162   001DB6  EFE6  F00E         	goto	u7501
  2163   001DBA  5059               	movf	(key_pad_get@i+1)^0,w,c
  2164   001DBC  E109               	bnz	u7500
  2165   001DBE  0E04               	movlw	4
  2166   001DC0  5C58               	subwf	key_pad_get@i^0,w,c
  2167   001DC2  A0D8               	btfss	status,0,c
  2168   001DC4  EFE6  F00E         	goto	u7501
  2169   001DC8  EFE8  F00E         	goto	u7500
  2170   001DCC                     u7501:
  2171   001DCC  EF8A  F00E         	goto	l8241
  2172   001DD0                     u7500:
  2173   001DD0                     
  2174                           ;application.c: 217:         if(enter_password[3] != 0x0){
  2175   001DD0  0100               	movlb	0	; () banked
  2176   001DD2  51BB               	movf	(_enter_password+3)& (0+255),w,b
  2177   001DD4  B4D8               	btfsc	status,2,c
  2178   001DD6  EFEF  F00E         	goto	u7511
  2179   001DDA  EFF1  F00E         	goto	u7510
  2180   001DDE                     u7511:
  2181   001DDE  EF86  F00E         	goto	l1797
  2182   001DE2                     u7510:
  2183   001DE2                     
  2184                           ; BSR set to: 0
  2185   001DE2  0012               	return		;funcret
  2186   001DE4                     __end_of_key_pad_get:
  2187                           	callstack 0
  2188                           
  2189 ;; *************** function _lcd_4bit_send_data_char_posit *****************
  2190 ;; Defined at:
  2191 ;;		line 75 in file "ECU_Layer/CHR_LCD/ecu_chr_lcd.c"
  2192 ;; Parameters:    Size  Location     Type
  2193 ;;  lcd             1   21[COMRAM] PTR const struct .
  2194 ;;		 -> lcd_2(6), 
  2195 ;;  row             1   22[COMRAM] unsigned char 
  2196 ;;  colunm          1   23[COMRAM] unsigned char 
  2197 ;;  data            1   24[COMRAM] unsigned char 
  2198 ;; Auto vars:     Size  Location     Type
  2199 ;;  ret             1   25[COMRAM] unsigned char 
  2200 ;; Return value:  Size  Location     Type
  2201 ;;                  1    wreg      unsigned char 
  2202 ;; Registers used:
  2203 ;;		wreg, fsr2l, fsr2h, status,2, status,0, prodl, prodh, cstack
  2204 ;; Tracked objects:
  2205 ;;		On entry : 0/0
  2206 ;;		On exit  : 0/0
  2207 ;;		Unchanged: 0/0
  2208 ;; Data sizes:     COMRAM   BANK0   BANK1   BANK2   BANK3   BANK4   BANK5   BANK6   BANK7   BANK8   BANK9  BANK10  BANK1
      +1  BANK12  BANK13  BANK14  BANK15
  2209 ;;      Params:         4       0       0       0       0       0       0       0       0       0       0       0       
      +0       0       0       0       0
  2210 ;;      Locals:         1       0       0       0       0       0       0       0       0       0       0       0       
      +0       0       0       0       0
  2211 ;;      Temps:          0       0       0       0       0       0       0       0       0       0       0       0       
      +0       0       0       0       0
  2212 ;;      Totals:         5       0       0       0       0       0       0       0       0       0       0       0       
      +0       0       0       0       0
  2213 ;;Total ram usage:        5 bytes
  2214 ;; Hardware stack levels used: 1
  2215 ;; Hardware stack levels required when called: 6
  2216 ;; This function calls:
  2217 ;;		_lcd_4bit_send_data_char
  2218 ;;		_lcd_set_cursor_4bit
  2219 ;; This function is called by:
  2220 ;;		_key_pad_get
  2221 ;;		_lcd_4bit_send_custom_char
  2222 ;; This function uses a non-reentrant model
  2223 ;;
  2224                           
  2225                           	psect	text7
  2226   00262C                     __ptext7:
  2227                           	callstack 0
  2228   00262C                     _lcd_4bit_send_data_char_posit:
  2229                           	callstack 23
  2230   00262C                     
  2231                           ;ECU_Layer/CHR_LCD/ecu_chr_lcd.c: 77:     if((((void*)0)==lcd)){
  2232   00262C  5051               	movf	lcd_4bit_send_data_char_posit@lcd^0,w,c
  2233   00262E  A4D8               	btfss	status,2,c
  2234   002630  EF1C  F013         	goto	u7101
  2235   002634  EF1E  F013         	goto	u7100
  2236   002638                     u7101:
  2237   002638  EF22  F013         	goto	l7851
  2238   00263C                     u7100:
  2239   00263C                     
  2240                           ;ECU_Layer/CHR_LCD/ecu_chr_lcd.c: 78:         ret =(Std_ReturnType)0x00 ;
  2241   00263C  0E00               	movlw	0
  2242   00263E  6E55               	movwf	lcd_4bit_send_data_char_posit@ret^0,c
  2243                           
  2244                           ;ECU_Layer/CHR_LCD/ecu_chr_lcd.c: 79:     }else {
  2245   002640  EF32  F013         	goto	l7853
  2246   002644                     l7851:
  2247                           
  2248                           ;ECU_Layer/CHR_LCD/ecu_chr_lcd.c: 81:       ret = lcd_set_cursor_4bit(lcd ,row , colunm)
      +                          ;
  2249   002644  C051  F04B         	movff	lcd_4bit_send_data_char_posit@lcd,lcd_set_cursor_4bit@lcd
  2250   002648  C052  F04C         	movff	lcd_4bit_send_data_char_posit@row,lcd_set_cursor_4bit@row
  2251   00264C  C053  F04D         	movff	lcd_4bit_send_data_char_posit@colunm,lcd_set_cursor_4bit@column
  2252   002650  EC53  F010         	call	_lcd_set_cursor_4bit	;wreg free
  2253   002654  6E55               	movwf	lcd_4bit_send_data_char_posit@ret^0,c
  2254                           
  2255                           ;ECU_Layer/CHR_LCD/ecu_chr_lcd.c: 82:         ret = lcd_4bit_send_data_char(lcd , data);
  2256   002656  C051  F048         	movff	lcd_4bit_send_data_char_posit@lcd,lcd_4bit_send_data_char@lcd
  2257   00265A  C054  F049         	movff	lcd_4bit_send_data_char_posit@data,lcd_4bit_send_data_char@data
  2258   00265E  EC2C  F012         	call	_lcd_4bit_send_data_char	;wreg free
  2259   002662  6E55               	movwf	lcd_4bit_send_data_char_posit@ret^0,c
  2260   002664                     l7853:
  2261                           
  2262                           ;ECU_Layer/CHR_LCD/ecu_chr_lcd.c: 84:     return ret ;
  2263   002664  5055               	movf	lcd_4bit_send_data_char_posit@ret^0,w,c
  2264   002666  0012               	return		;funcret
  2265   002668                     __end_of_lcd_4bit_send_data_char_posit:
  2266                           	callstack 0
  2267                           
  2268 ;; *************** function _lcd_set_cursor_4bit *****************
  2269 ;; Defined at:
  2270 ;;		line 326 in file "ECU_Layer/CHR_LCD/ecu_chr_lcd.c"
  2271 ;; Parameters:    Size  Location     Type
  2272 ;;  lcd             1   15[COMRAM] PTR const struct .
  2273 ;;		 -> lcd_2(6), 
  2274 ;;  row             1   16[COMRAM] unsigned char 
  2275 ;;  column          1   17[COMRAM] unsigned char 
  2276 ;; Auto vars:     Size  Location     Type
  2277 ;;  ret             1   20[COMRAM] unsigned char 
  2278 ;; Return value:  Size  Location     Type
  2279 ;;                  1    wreg      unsigned char 
  2280 ;; Registers used:
  2281 ;;		wreg, fsr2l, fsr2h, status,2, status,0, prodl, prodh, cstack
  2282 ;; Tracked objects:
  2283 ;;		On entry : 0/0
  2284 ;;		On exit  : 0/0
  2285 ;;		Unchanged: 0/0
  2286 ;; Data sizes:     COMRAM   BANK0   BANK1   BANK2   BANK3   BANK4   BANK5   BANK6   BANK7   BANK8   BANK9  BANK10  BANK1
      +1  BANK12  BANK13  BANK14  BANK15
  2287 ;;      Params:         3       0       0       0       0       0       0       0       0       0       0       0       
      +0       0       0       0       0
  2288 ;;      Locals:         1       0       0       0       0       0       0       0       0       0       0       0       
      +0       0       0       0       0
  2289 ;;      Temps:          2       0       0       0       0       0       0       0       0       0       0       0       
      +0       0       0       0       0
  2290 ;;      Totals:         6       0       0       0       0       0       0       0       0       0       0       0       
      +0       0       0       0       0
  2291 ;;Total ram usage:        6 bytes
  2292 ;; Hardware stack levels used: 1
  2293 ;; Hardware stack levels required when called: 5
  2294 ;; This function calls:
  2295 ;;		_lcd_4bit_send_command
  2296 ;; This function is called by:
  2297 ;;		_lcd_4bit_send_data_char_posit
  2298 ;;		_lcd_4bit_send_data_string_posit
  2299 ;; This function uses a non-reentrant model
  2300 ;;
  2301                           
  2302                           	psect	text8
  2303   0020A6                     __ptext8:
  2304                           	callstack 0
  2305   0020A6                     _lcd_set_cursor_4bit:
  2306                           	callstack 24
  2307   0020A6                     
  2308                           ;ECU_Layer/CHR_LCD/ecu_chr_lcd.c: 328:          column-- ;
  2309   0020A6  064D               	decf	lcd_set_cursor_4bit@column^0,f,c
  2310                           
  2311                           ;ECU_Layer/CHR_LCD/ecu_chr_lcd.c: 329:         switch(row){
  2312   0020A8  EF82  F010         	goto	l7783
  2313   0020AC                     l7773:
  2314   0020AC  C04B  F048         	movff	lcd_set_cursor_4bit@lcd,lcd_4bit_send_command@lcd
  2315   0020B0  504D               	movf	lcd_set_cursor_4bit@column^0,w,c
  2316   0020B2  0F80               	addlw	128
  2317   0020B4  6E49               	movwf	lcd_4bit_send_command@command^0,c
  2318   0020B6  EC5A  F012         	call	_lcd_4bit_send_command	;wreg free
  2319   0020BA  6E50               	movwf	lcd_set_cursor_4bit@ret^0,c
  2320   0020BC  EF9F  F010         	goto	l7785
  2321   0020C0                     l7775:
  2322   0020C0  C04B  F048         	movff	lcd_set_cursor_4bit@lcd,lcd_4bit_send_command@lcd
  2323   0020C4  504D               	movf	lcd_set_cursor_4bit@column^0,w,c
  2324   0020C6  0FC0               	addlw	192
  2325   0020C8  6E49               	movwf	lcd_4bit_send_command@command^0,c
  2326   0020CA  EC5A  F012         	call	_lcd_4bit_send_command	;wreg free
  2327   0020CE  6E50               	movwf	lcd_set_cursor_4bit@ret^0,c
  2328   0020D0  EF9F  F010         	goto	l7785
  2329   0020D4                     l7777:
  2330   0020D4  C04B  F048         	movff	lcd_set_cursor_4bit@lcd,lcd_4bit_send_command@lcd
  2331   0020D8  504D               	movf	lcd_set_cursor_4bit@column^0,w,c
  2332   0020DA  0F90               	addlw	144
  2333   0020DC  6E49               	movwf	lcd_4bit_send_command@command^0,c
  2334   0020DE  EC5A  F012         	call	_lcd_4bit_send_command	;wreg free
  2335   0020E2  6E50               	movwf	lcd_set_cursor_4bit@ret^0,c
  2336   0020E4  EF9F  F010         	goto	l7785
  2337   0020E8                     l7779:
  2338   0020E8  C04B  F048         	movff	lcd_set_cursor_4bit@lcd,lcd_4bit_send_command@lcd
  2339   0020EC  504D               	movf	lcd_set_cursor_4bit@column^0,w,c
  2340   0020EE  0FD0               	addlw	208
  2341   0020F0  6E49               	movwf	lcd_4bit_send_command@command^0,c
  2342   0020F2  EC5A  F012         	call	_lcd_4bit_send_command	;wreg free
  2343   0020F6  6E50               	movwf	lcd_set_cursor_4bit@ret^0,c
  2344   0020F8  EF9F  F010         	goto	l7785
  2345   0020FC                     l7781:
  2346                           
  2347                           ;ECU_Layer/CHR_LCD/ecu_chr_lcd.c: 337:         ret= (Std_ReturnType)0x01 ;
  2348   0020FC  0E01               	movlw	1
  2349   0020FE  6E50               	movwf	lcd_set_cursor_4bit@ret^0,c
  2350                           
  2351                           ;ECU_Layer/CHR_LCD/ecu_chr_lcd.c: 338:     }
  2352   002100  EF9F  F010         	goto	l7785
  2353   002104                     l7783:
  2354   002104  504C               	movf	lcd_set_cursor_4bit@row^0,w,c
  2355   002106  6E4E               	movwf	??_lcd_set_cursor_4bit^0,c
  2356   002108  6A4F               	clrf	(??_lcd_set_cursor_4bit+1)^0,c
  2357                           
  2358                           ; Switch on 2 bytes has been partitioned into a top level switch of size 1, and 1 sub-sw
      +                          itches
  2359                           ; Switch size 1, requested type "simple"
  2360                           ; Number of cases is 1, Range of values is 0 to 0
  2361                           ; switch strategies available:
  2362                           ; Name         Instructions Cycles
  2363                           ; simple_byte            4     3 (average)
  2364                           ;	Chosen strategy is simple_byte
  2365   00210A  504F               	movf	(??_lcd_set_cursor_4bit+1)^0,w,c
  2366   00210C  0A00               	xorlw	0	; case 0
  2367   00210E  B4D8               	btfsc	status,2,c
  2368   002110  EF8C  F010         	goto	l8881
  2369   002114  EF7E  F010         	goto	l7781
  2370   002118                     l8881:
  2371                           
  2372                           ; Switch size 1, requested type "simple"
  2373                           ; Number of cases is 4, Range of values is 1 to 4
  2374                           ; switch strategies available:
  2375                           ; Name         Instructions Cycles
  2376                           ; simple_byte           13     7 (average)
  2377                           ;	Chosen strategy is simple_byte
  2378   002118  504E               	movf	??_lcd_set_cursor_4bit^0,w,c
  2379   00211A  0A01               	xorlw	1	; case 1
  2380   00211C  B4D8               	btfsc	status,2,c
  2381   00211E  EF56  F010         	goto	l7773
  2382   002122  0A03               	xorlw	3	; case 2
  2383   002124  B4D8               	btfsc	status,2,c
  2384   002126  EF60  F010         	goto	l7775
  2385   00212A  0A01               	xorlw	1	; case 3
  2386   00212C  B4D8               	btfsc	status,2,c
  2387   00212E  EF6A  F010         	goto	l7777
  2388   002132  0A07               	xorlw	7	; case 4
  2389   002134  B4D8               	btfsc	status,2,c
  2390   002136  EF74  F010         	goto	l7779
  2391   00213A  EF7E  F010         	goto	l7781
  2392   00213E                     l7785:
  2393                           
  2394                           ;ECU_Layer/CHR_LCD/ecu_chr_lcd.c: 339:     return ret ;
  2395   00213E  5050               	movf	lcd_set_cursor_4bit@ret^0,w,c
  2396   002140  0012               	return		;funcret
  2397   002142                     __end_of_lcd_set_cursor_4bit:
  2398                           	callstack 0
  2399                           
  2400 ;; *************** function _lcd_4bit_send_data_char *****************
  2401 ;; Defined at:
  2402 ;;		line 60 in file "ECU_Layer/CHR_LCD/ecu_chr_lcd.c"
  2403 ;; Parameters:    Size  Location     Type
  2404 ;;  lcd             1   12[COMRAM] PTR const struct .
  2405 ;;		 -> lcd_2(6), 
  2406 ;;  data            1   13[COMRAM] unsigned char 
  2407 ;; Auto vars:     Size  Location     Type
  2408 ;;  ret             1   14[COMRAM] unsigned char 
  2409 ;; Return value:  Size  Location     Type
  2410 ;;                  1    wreg      unsigned char 
  2411 ;; Registers used:
  2412 ;;		wreg, fsr2l, fsr2h, status,2, status,0, prodl, prodh, cstack
  2413 ;; Tracked objects:
  2414 ;;		On entry : 0/0
  2415 ;;		On exit  : 0/0
  2416 ;;		Unchanged: 0/0
  2417 ;; Data sizes:     COMRAM   BANK0   BANK1   BANK2   BANK3   BANK4   BANK5   BANK6   BANK7   BANK8   BANK9  BANK10  BANK1
      +1  BANK12  BANK13  BANK14  BANK15
  2418 ;;      Params:         2       0       0       0       0       0       0       0       0       0       0       0       
      +0       0       0       0       0
  2419 ;;      Locals:         1       0       0       0       0       0       0       0       0       0       0       0       
      +0       0       0       0       0
  2420 ;;      Temps:          0       0       0       0       0       0       0       0       0       0       0       0       
      +0       0       0       0       0
  2421 ;;      Totals:         3       0       0       0       0       0       0       0       0       0       0       0       
      +0       0       0       0       0
  2422 ;;Total ram usage:        3 bytes
  2423 ;; Hardware stack levels used: 1
  2424 ;; Hardware stack levels required when called: 4
  2425 ;; This function calls:
  2426 ;;		_gpio_pin_write_logic
  2427 ;;		_lcd_send_4bit_command_data
  2428 ;;		_lcd_send_4bit_enable
  2429 ;; This function is called by:
  2430 ;;		_lcd_4bit_send_data_char_posit
  2431 ;;		_lcd_4bit_send_data_string
  2432 ;;		_lcd_4bit_send_data_string_posit
  2433 ;;		_main
  2434 ;;		_lcd_4bit_send_custom_char
  2435 ;; This function uses a non-reentrant model
  2436 ;;
  2437                           
  2438                           	psect	text9
  2439   002458                     __ptext9:
  2440                           	callstack 0
  2441   002458                     _lcd_4bit_send_data_char:
  2442                           	callstack 25
  2443   002458                     
  2444                           ;ECU_Layer/CHR_LCD/ecu_chr_lcd.c: 62:     if((((void*)0)==lcd)){
  2445   002458  5048               	movf	lcd_4bit_send_data_char@lcd^0,w,c
  2446   00245A  A4D8               	btfss	status,2,c
  2447   00245C  EF32  F012         	goto	u7061
  2448   002460  EF34  F012         	goto	u7060
  2449   002464                     u7061:
  2450   002464  EF38  F012         	goto	l7763
  2451   002468                     u7060:
  2452   002468                     
  2453                           ;ECU_Layer/CHR_LCD/ecu_chr_lcd.c: 63:         ret =(Std_ReturnType)0x00 ;
  2454   002468  0E00               	movlw	0
  2455   00246A  6E4A               	movwf	lcd_4bit_send_data_char@ret^0,c
  2456                           
  2457                           ;ECU_Layer/CHR_LCD/ecu_chr_lcd.c: 64:     }else {
  2458   00246C  EF58  F012         	goto	l7765
  2459   002470                     l7763:
  2460                           
  2461                           ;ECU_Layer/CHR_LCD/ecu_chr_lcd.c: 65:        ret = gpio_pin_write_logic(&(lcd->pin_Rs) ,
      +                           LOGIC_HIGH);
  2462   002470  C048  F03D         	movff	lcd_4bit_send_data_char@lcd,gpio_pin_write_logic@_pin_t
  2463   002474  0E01               	movlw	1
  2464   002476  6E3E               	movwf	gpio_pin_write_logic@logic^0,c
  2465   002478  EC14  F00D         	call	_gpio_pin_write_logic	;wreg free
  2466   00247C  6E4A               	movwf	lcd_4bit_send_data_char@ret^0,c
  2467                           
  2468                           ;ECU_Layer/CHR_LCD/ecu_chr_lcd.c: 66:         ret = lcd_send_4bit_command_data((lcd) , d
      +                          ata >> 4);
  2469   00247E  C048  F045         	movff	lcd_4bit_send_data_char@lcd,lcd_send_4bit_command_data@lcd
  2470   002482  3849               	swapf	lcd_4bit_send_data_char@data^0,w,c
  2471   002484  0B0F               	andlw	15
  2472   002486  6E46               	movwf	lcd_send_4bit_command_data@data^0,c
  2473   002488  EC60  F011         	call	_lcd_send_4bit_command_data	;wreg free
  2474   00248C  6E4A               	movwf	lcd_4bit_send_data_char@ret^0,c
  2475                           
  2476                           ;ECU_Layer/CHR_LCD/ecu_chr_lcd.c: 67:         ret = lcd_send_4bit_enable((lcd));
  2477   00248E  C048  F045         	movff	lcd_4bit_send_data_char@lcd,lcd_send_4bit_enable@lcd
  2478   002492  ECF6  F012         	call	_lcd_send_4bit_enable	;wreg free
  2479   002496  6E4A               	movwf	lcd_4bit_send_data_char@ret^0,c
  2480                           
  2481                           ;ECU_Layer/CHR_LCD/ecu_chr_lcd.c: 68:         ret = lcd_send_4bit_command_data((lcd) , d
      +                          ata);
  2482   002498  C048  F045         	movff	lcd_4bit_send_data_char@lcd,lcd_send_4bit_command_data@lcd
  2483   00249C  C049  F046         	movff	lcd_4bit_send_data_char@data,lcd_send_4bit_command_data@data
  2484   0024A0  EC60  F011         	call	_lcd_send_4bit_command_data	;wreg free
  2485   0024A4  6E4A               	movwf	lcd_4bit_send_data_char@ret^0,c
  2486                           
  2487                           ;ECU_Layer/CHR_LCD/ecu_chr_lcd.c: 69:         ret = lcd_send_4bit_enable((lcd));
  2488   0024A6  C048  F045         	movff	lcd_4bit_send_data_char@lcd,lcd_send_4bit_enable@lcd
  2489   0024AA  ECF6  F012         	call	_lcd_send_4bit_enable	;wreg free
  2490   0024AE  6E4A               	movwf	lcd_4bit_send_data_char@ret^0,c
  2491   0024B0                     l7765:
  2492                           
  2493                           ;ECU_Layer/CHR_LCD/ecu_chr_lcd.c: 71:     return ret ;
  2494   0024B0  504A               	movf	lcd_4bit_send_data_char@ret^0,w,c
  2495   0024B2  0012               	return		;funcret
  2496   0024B4                     __end_of_lcd_4bit_send_data_char:
  2497                           	callstack 0
  2498                           
  2499 ;; *************** function _keypad_get_value *****************
  2500 ;; Defined at:
  2501 ;;		line 46 in file "ECU_Layer/KEYPAD/ecu_keypad.c"
  2502 ;; Parameters:    Size  Location     Type
  2503 ;;  keypad          1    9[COMRAM] PTR const struct .
  2504 ;;		 -> keypad_1(8), 
  2505 ;;  value           1   10[COMRAM] PTR unsigned char 
  2506 ;;		 -> enter_password(5), 
  2507 ;; Auto vars:     Size  Location     Type
  2508 ;;  column_count    1   16[COMRAM] unsigned char 
  2509 ;;  l_counter       1   15[COMRAM] unsigned char 
  2510 ;;  row_counter     1   14[COMRAM] unsigned char 
  2511 ;;  ret_logic       1   13[COMRAM] unsigned char 
  2512 ;;  ret             1   12[COMRAM] unsigned char 
  2513 ;; Return value:  Size  Location     Type
  2514 ;;                  1    wreg      unsigned char 
  2515 ;; Registers used:
  2516 ;;		wreg, fsr1l, fsr1h, fsr2l, fsr2h, status,2, status,0, tblptrl, tblptrh, tblptru, prodl, prodh, cstack
  2517 ;; Tracked objects:
  2518 ;;		On entry : 0/0
  2519 ;;		On exit  : 0/0
  2520 ;;		Unchanged: 0/0
  2521 ;; Data sizes:     COMRAM   BANK0   BANK1   BANK2   BANK3   BANK4   BANK5   BANK6   BANK7   BANK8   BANK9  BANK10  BANK1
      +1  BANK12  BANK13  BANK14  BANK15
  2522 ;;      Params:         2       0       0       0       0       0       0       0       0       0       0       0       
      +0       0       0       0       0
  2523 ;;      Locals:         5       0       0       0       0       0       0       0       0       0       0       0       
      +0       0       0       0       0
  2524 ;;      Temps:          1       0       0       0       0       0       0       0       0       0       0       0       
      +0       0       0       0       0
  2525 ;;      Totals:         8       0       0       0       0       0       0       0       0       0       0       0       
      +0       0       0       0       0
  2526 ;;Total ram usage:        8 bytes
  2527 ;; Hardware stack levels used: 1
  2528 ;; Hardware stack levels required when called: 3
  2529 ;; This function calls:
  2530 ;;		_gpio_pin_read_logic
  2531 ;;		_gpio_pin_write_logic
  2532 ;; This function is called by:
  2533 ;;		_key_pad_get
  2534 ;; This function uses a non-reentrant model
  2535 ;;
  2536                           
  2537                           	psect	text10
  2538   001B38                     __ptext10:
  2539                           	callstack 0
  2540   001B38                     _keypad_get_value:
  2541                           	callstack 26
  2542   001B38                     
  2543                           ;ECU_Layer/KEYPAD/ecu_keypad.c: 48: uint8 l_counter= 0 , row_counter= 0 , column_counter
      +                           =0 , ret_logic = 0;
  2544   001B38  0E00               	movlw	0
  2545   001B3A  6E4B               	movwf	keypad_get_value@l_counter^0,c
  2546   001B3C  0E00               	movlw	0
  2547   001B3E  6E4A               	movwf	keypad_get_value@row_counter^0,c
  2548   001B40  0E00               	movlw	0
  2549   001B42  6E4C               	movwf	keypad_get_value@column_counter^0,c
  2550   001B44  0E00               	movlw	0
  2551   001B46  6E49               	movwf	keypad_get_value@ret_logic^0,c
  2552                           
  2553                           ;ECU_Layer/KEYPAD/ecu_keypad.c: 49:     if((((void*)0)==keypad)||(((void*)0) == value))
  2554   001B48  5045               	movf	keypad_get_value@keypad^0,w,c
  2555   001B4A  B4D8               	btfsc	status,2,c
  2556   001B4C  EFAA  F00D         	goto	u7201
  2557   001B50  EFAC  F00D         	goto	u7200
  2558   001B54                     u7201:
  2559   001B54  EFB4  F00D         	goto	l7969
  2560   001B58                     u7200:
  2561   001B58  5046               	movf	keypad_get_value@value^0,w,c
  2562   001B5A  A4D8               	btfss	status,2,c
  2563   001B5C  EFB2  F00D         	goto	u7211
  2564   001B60  EFB4  F00D         	goto	u7210
  2565   001B64                     u7211:
  2566   001B64  EFB8  F00D         	goto	l7971
  2567   001B68                     u7210:
  2568   001B68                     l7969:
  2569                           
  2570                           ;ECU_Layer/KEYPAD/ecu_keypad.c: 50:     {;ECU_Layer/KEYPAD/ecu_keypad.c: 51:         ret
      +                           =(Std_ReturnType)0x00 ;
  2571   001B68  0E00               	movlw	0
  2572   001B6A  6E48               	movwf	keypad_get_value@ret^0,c
  2573                           
  2574                           ;ECU_Layer/KEYPAD/ecu_keypad.c: 52:     }else
  2575   001B6C  EF11  F00E         	goto	l8013
  2576   001B70                     l7971:
  2577                           
  2578                           ;ECU_Layer/KEYPAD/ecu_keypad.c: 53:     {;ECU_Layer/KEYPAD/ecu_keypad.c: 54:         for
      +                          (l_counter = 0 ; l_counter <4 ; l_counter++ ){
  2579   001B70  0E00               	movlw	0
  2580   001B72  6E4B               	movwf	keypad_get_value@l_counter^0,c
  2581   001B74                     l7977:
  2582                           
  2583                           ;ECU_Layer/KEYPAD/ecu_keypad.c: 55:         for(row_counter = 0 ; row_counter <4 ; row_c
      +                          ounter++ ){
  2584   001B74  0E00               	movlw	0
  2585   001B76  6E4A               	movwf	keypad_get_value@row_counter^0,c
  2586   001B78                     l7983:
  2587   001B78  5045               	movf	keypad_get_value@keypad^0,w,c
  2588   001B7A  244A               	addwf	keypad_get_value@row_counter^0,w,c
  2589   001B7C  6E3D               	movwf	gpio_pin_write_logic@_pin_t^0,c
  2590   001B7E  0E00               	movlw	0
  2591   001B80  6E3E               	movwf	gpio_pin_write_logic@logic^0,c
  2592   001B82  EC14  F00D         	call	_gpio_pin_write_logic	;wreg free
  2593   001B86                     
  2594                           ;ECU_Layer/KEYPAD/ecu_keypad.c: 57:         }
  2595   001B86  2A4A               	incf	keypad_get_value@row_counter^0,f,c
  2596   001B88  0E03               	movlw	3
  2597   001B8A  644A               	cpfsgt	keypad_get_value@row_counter^0,c
  2598   001B8C  EFCA  F00D         	goto	u7221
  2599   001B90  EFCC  F00D         	goto	u7220
  2600   001B94                     u7221:
  2601   001B94  EFBC  F00D         	goto	l7983
  2602   001B98                     u7220:
  2603   001B98  5045               	movf	keypad_get_value@keypad^0,w,c
  2604   001B9A  244B               	addwf	keypad_get_value@l_counter^0,w,c
  2605   001B9C  6E3D               	movwf	gpio_pin_write_logic@_pin_t^0,c
  2606   001B9E  0E01               	movlw	1
  2607   001BA0  6E3E               	movwf	gpio_pin_write_logic@logic^0,c
  2608   001BA2  EC14  F00D         	call	_gpio_pin_write_logic	;wreg free
  2609   001BA6                     
  2610                           ;ECU_Layer/KEYPAD/ecu_keypad.c: 59:         _delay((unsigned long)((10)*(8000000UL/4000.
      +                          0)));
  2611   001BA6  0E1A               	movlw	26
  2612   001BA8  6E47               	movwf	??_keypad_get_value^0,c
  2613   001BAA  0EF8               	movlw	248
  2614   001BAC                     u8177:
  2615   001BAC  2EE8               	decfsz	wreg,f,c
  2616   001BAE  D7FE               	bra	u8177
  2617   001BB0  2E47               	decfsz	??_keypad_get_value^0,f,c
  2618   001BB2  D7FC               	bra	u8177
  2619   001BB4  D000               	nop2	
  2620   001BB6                     
  2621                           ;ECU_Layer/KEYPAD/ecu_keypad.c: 60:         for(column_counter = 0 ; column_counter <4 ;
      +                           column_counter++ ){
  2622   001BB6  0E00               	movlw	0
  2623   001BB8  6E4C               	movwf	keypad_get_value@column_counter^0,c
  2624   001BBA                     l7999:
  2625                           
  2626                           ;ECU_Layer/KEYPAD/ecu_keypad.c: 61:             ret = gpio_pin_read_logic(&(keypad->pad_
      +                          column[column_counter]),&ret_logic);
  2627   001BBA  5045               	movf	keypad_get_value@keypad^0,w,c
  2628   001BBC  244C               	addwf	keypad_get_value@column_counter^0,w,c
  2629   001BBE  0F04               	addlw	4
  2630   001BC0  6E3D               	movwf	gpio_pin_read_logic@_pin_t^0,c
  2631   001BC2  0E49               	movlw	low keypad_get_value@ret_logic
  2632   001BC4  6E3E               	movwf	gpio_pin_read_logic@logic^0,c
  2633   001BC6  EC01  F010         	call	_gpio_pin_read_logic	;wreg free
  2634   001BCA  6E48               	movwf	keypad_get_value@ret^0,c
  2635   001BCC                     
  2636                           ;ECU_Layer/KEYPAD/ecu_keypad.c: 62:             if(LOGIC_HIGH == ret_logic){
  2637   001BCC  0449               	decf	keypad_get_value@ret_logic^0,w,c
  2638   001BCE  A4D8               	btfss	status,2,c
  2639   001BD0  EFEC  F00D         	goto	u7231
  2640   001BD4  EFEE  F00D         	goto	u7230
  2641   001BD8                     u7231:
  2642   001BD8  EFFF  F00D         	goto	l8005
  2643   001BDC                     u7230:
  2644   001BDC                     
  2645                           ;ECU_Layer/KEYPAD/ecu_keypad.c: 63:             *value = keypad_values[l_counter][column
      +                          _counter];
  2646   001BDC  504B               	movf	keypad_get_value@l_counter^0,w,c
  2647   001BDE  0D04               	mullw	4
  2648   001BE0  50F3               	movf	243,w,c
  2649   001BE2  0F01               	addlw	low _keypad_values
  2650   001BE4  244C               	addwf	keypad_get_value@column_counter^0,w,c
  2651   001BE6  6E47               	movwf	??_keypad_get_value^0,c
  2652   001BE8  C047  FFF6         	movff	??_keypad_get_value,tblptrl
  2653   001BEC                     	if	1	;There is more than 1 active tblptr byte
  2654   001BEC  0E10               	movlw	high __smallconst
  2655   001BEE  6EF7               	movwf	tblptrh,c
  2656   001BF0                     	endif
  2657   001BF0                     	if	1	;Program memory is < 0x10000, tblptru is always zero
  2658   001BF0  6AF8               	clrf	tblptru,c
  2659   001BF2                     	endif
  2660   001BF2                     	if	0	;tblptru may be non-zero
  2661   001BF2                     	endif
  2662   001BF2  5046               	movf	keypad_get_value@value^0,w,c
  2663   001BF4  6ED9               	movwf	fsr2l,c
  2664   001BF6  6ADA               	clrf	fsr2h,c
  2665   001BF8  0008               	tblrd		*
  2666   001BFA  CFF5 FFDF          	movff	tablat,indf2
  2667   001BFE                     l8005:
  2668                           
  2669                           ;ECU_Layer/KEYPAD/ecu_keypad.c: 65:         }
  2670   001BFE  2A4C               	incf	keypad_get_value@column_counter^0,f,c
  2671   001C00  0E03               	movlw	3
  2672   001C02  644C               	cpfsgt	keypad_get_value@column_counter^0,c
  2673   001C04  EF06  F00E         	goto	u7241
  2674   001C08  EF08  F00E         	goto	u7240
  2675   001C0C                     u7241:
  2676   001C0C  EFDD  F00D         	goto	l7999
  2677   001C10                     u7240:
  2678   001C10                     
  2679                           ;ECU_Layer/KEYPAD/ecu_keypad.c: 66:         }
  2680   001C10  2A4B               	incf	keypad_get_value@l_counter^0,f,c
  2681   001C12  0E03               	movlw	3
  2682   001C14  644B               	cpfsgt	keypad_get_value@l_counter^0,c
  2683   001C16  EF0F  F00E         	goto	u7251
  2684   001C1A  EF11  F00E         	goto	u7250
  2685   001C1E                     u7251:
  2686   001C1E  EFBA  F00D         	goto	l7977
  2687   001C22                     u7250:
  2688   001C22                     l8013:
  2689                           
  2690                           ;ECU_Layer/KEYPAD/ecu_keypad.c: 68:     return ret;
  2691   001C22  5048               	movf	keypad_get_value@ret^0,w,c
  2692   001C24  0012               	return		;funcret
  2693   001C26                     __end_of_keypad_get_value:
  2694                           	callstack 0
  2695                           
  2696 ;; *************** function _gpio_pin_read_logic *****************
  2697 ;; Defined at:
  2698 ;;		line 109 in file "MCAL_Layer/GPIO/hal_gpio.c"
  2699 ;; Parameters:    Size  Location     Type
  2700 ;;  _pin_t          1    1[COMRAM] PTR const struct .
  2701 ;;		 -> keypad_1$pad_column(4), keypad_1(8), 
  2702 ;;  logic           1    2[COMRAM] PTR enum E2978
  2703 ;;		 -> keypad_get_value@ret_logic(1), button_read_state@btn_logic(1), 
  2704 ;; Auto vars:     Size  Location     Type
  2705 ;;  ret             1    7[COMRAM] unsigned char 
  2706 ;; Return value:  Size  Location     Type
  2707 ;;                  1    wreg      unsigned char 
  2708 ;; Registers used:
  2709 ;;		wreg, fsr1l, fsr1h, fsr2l, fsr2h, status,2, status,0, prodl, prodh
  2710 ;; Tracked objects:
  2711 ;;		On entry : 0/0
  2712 ;;		On exit  : 0/0
  2713 ;;		Unchanged: 0/0
  2714 ;; Data sizes:     COMRAM   BANK0   BANK1   BANK2   BANK3   BANK4   BANK5   BANK6   BANK7   BANK8   BANK9  BANK10  BANK1
      +1  BANK12  BANK13  BANK14  BANK15
  2715 ;;      Params:         2       0       0       0       0       0       0       0       0       0       0       0       
      +0       0       0       0       0
  2716 ;;      Locals:         1       0       0       0       0       0       0       0       0       0       0       0       
      +0       0       0       0       0
  2717 ;;      Temps:          4       0       0       0       0       0       0       0       0       0       0       0       
      +0       0       0       0       0
  2718 ;;      Totals:         7       0       0       0       0       0       0       0       0       0       0       0       
      +0       0       0       0       0
  2719 ;;Total ram usage:        7 bytes
  2720 ;; Hardware stack levels used: 1
  2721 ;; Hardware stack levels required when called: 2
  2722 ;; This function calls:
  2723 ;;		Nothing
  2724 ;; This function is called by:
  2725 ;;		_keypad_get_value
  2726 ;;		_button_read_state
  2727 ;; This function uses a non-reentrant model
  2728 ;;
  2729                           
  2730                           	psect	text11
  2731   002002                     __ptext11:
  2732                           	callstack 0
  2733   002002                     _gpio_pin_read_logic:
  2734                           	callstack 26
  2735   002002                     
  2736                           ;MCAL_Layer/GPIO/hal_gpio.c: 110:     Std_ReturnType ret = (Std_ReturnType)0x01;
  2737   002002  0E01               	movlw	1
  2738   002004  6E43               	movwf	gpio_pin_read_logic@ret^0,c
  2739                           
  2740                           ;MCAL_Layer/GPIO/hal_gpio.c: 111:     if( ((void*)0) ==_pin_t || _pin_t->pin >(8)-1 ||((
      +                          void*)0) == logic)
  2741   002006  503D               	movf	gpio_pin_read_logic@_pin_t^0,w,c
  2742   002008  B4D8               	btfsc	status,2,c
  2743   00200A  EF09  F010         	goto	u7021
  2744   00200E  EF0B  F010         	goto	u7020
  2745   002012                     u7021:
  2746   002012  EF23  F010         	goto	l7751
  2747   002016                     u7020:
  2748   002016  503D               	movf	gpio_pin_read_logic@_pin_t^0,w,c
  2749   002018  6ED9               	movwf	fsr2l,c
  2750   00201A  6ADA               	clrf	fsr2h,c
  2751   00201C  30DF               	rrcf	223,w,c
  2752   00201E  32E8               	rrcf	wreg,f,c
  2753   002020  32E8               	rrcf	wreg,f,c
  2754   002022  0B07               	andlw	7
  2755   002024  6E3F               	movwf	??_gpio_pin_read_logic^0,c
  2756   002026  0E08               	movlw	8
  2757   002028  603F               	cpfslt	??_gpio_pin_read_logic^0,c
  2758   00202A  EF19  F010         	goto	u7031
  2759   00202E  EF1B  F010         	goto	u7030
  2760   002032                     u7031:
  2761   002032  EF23  F010         	goto	l7751
  2762   002036                     u7030:
  2763   002036  503E               	movf	gpio_pin_read_logic@logic^0,w,c
  2764   002038  A4D8               	btfss	status,2,c
  2765   00203A  EF21  F010         	goto	u7041
  2766   00203E  EF23  F010         	goto	u7040
  2767   002042                     u7041:
  2768   002042  EF27  F010         	goto	l7753
  2769   002046                     u7040:
  2770   002046                     l7751:
  2771                           
  2772                           ;MCAL_Layer/GPIO/hal_gpio.c: 112:     {;MCAL_Layer/GPIO/hal_gpio.c: 113:         ret = (
      +                          Std_ReturnType)0x00;
  2773   002046  0E00               	movlw	0
  2774   002048  6E43               	movwf	gpio_pin_read_logic@ret^0,c
  2775                           
  2776                           ;MCAL_Layer/GPIO/hal_gpio.c: 114:     }
  2777   00204A  EF51  F010         	goto	l7755
  2778   00204E                     l7753:
  2779                           
  2780                           ;MCAL_Layer/GPIO/hal_gpio.c: 116:     {;MCAL_Layer/GPIO/hal_gpio.c: 118:               *
      +                          logic = ((*port_registers[_pin_t->port] >> _pin_t->pin)& (uint8) 1) ;
  2781   00204E  503E               	movf	gpio_pin_read_logic@logic^0,w,c
  2782   002050  6ED9               	movwf	fsr2l,c
  2783   002052  6ADA               	clrf	fsr2h,c
  2784   002054  503D               	movf	gpio_pin_read_logic@_pin_t^0,w,c
  2785   002056  6EE1               	movwf	fsr1l,c
  2786   002058  6AE2               	clrf	fsr1h,c
  2787   00205A  30E7               	rrcf	231,w,c
  2788   00205C  32E8               	rrcf	wreg,f,c
  2789   00205E  32E8               	rrcf	wreg,f,c
  2790   002060  0B07               	andlw	7
  2791   002062  6E3F               	movwf	??_gpio_pin_read_logic^0,c
  2792   002064  503D               	movf	gpio_pin_read_logic@_pin_t^0,w,c
  2793   002066  6EE1               	movwf	fsr1l,c
  2794   002068  6AE2               	clrf	fsr1h,c
  2795   00206A  50E7               	movf	231,w,c
  2796   00206C  0B07               	andlw	7
  2797   00206E  0D02               	mullw	2
  2798   002070  50F3               	movf	243,w,c
  2799   002072  0FCC               	addlw	low _port_registers
  2800   002074  6EE1               	movwf	fsr1l,c
  2801   002076  6AE2               	clrf	fsr1h,c
  2802   002078  CFE6 F040          	movff	postinc1,??_gpio_pin_read_logic+1
  2803   00207C  CFE5 F041          	movff	postdec1,??_gpio_pin_read_logic+2
  2804   002080  C040  FFE1         	movff	??_gpio_pin_read_logic+1,fsr1l
  2805   002084  C041  FFE2         	movff	??_gpio_pin_read_logic+2,fsr1h
  2806   002088  50E7               	movf	indf1,w,c
  2807   00208A  6E42               	movwf	(??_gpio_pin_read_logic+3)^0,c
  2808   00208C  2A3F               	incf	??_gpio_pin_read_logic^0,f,c
  2809   00208E  EF4B  F010         	goto	u7054
  2810   002092                     u7055:
  2811   002092  90D8               	bcf	status,0,c
  2812   002094  3242               	rrcf	(??_gpio_pin_read_logic+3)^0,f,c
  2813   002096                     u7054:
  2814   002096  2E3F               	decfsz	??_gpio_pin_read_logic^0,f,c
  2815   002098  EF49  F010         	goto	u7055
  2816   00209C  5042               	movf	(??_gpio_pin_read_logic+3)^0,w,c
  2817   00209E  0B01               	andlw	1
  2818   0020A0  6EDF               	movwf	indf2,c
  2819   0020A2                     l7755:
  2820                           
  2821                           ;MCAL_Layer/GPIO/hal_gpio.c: 122:     return ret;
  2822   0020A2  5043               	movf	gpio_pin_read_logic@ret^0,w,c
  2823   0020A4  0012               	return		;funcret
  2824   0020A6                     __end_of_gpio_pin_read_logic:
  2825                           	callstack 0
  2826                           
  2827 ;; *************** function _convert_uint8_to_string *****************
  2828 ;; Defined at:
  2829 ;;		line 246 in file "ECU_Layer/CHR_LCD/ecu_chr_lcd.c"
  2830 ;; Parameters:    Size  Location     Type
  2831 ;;  num             1    wreg     unsigned char 
  2832 ;;  str             1   43[COMRAM] PTR unsigned char 
  2833 ;;		 -> str(5), 
  2834 ;; Auto vars:     Size  Location     Type
  2835 ;;  num             1   44[COMRAM] unsigned char 
  2836 ;;  ret             1    0        unsigned char 
  2837 ;; Return value:  Size  Location     Type
  2838 ;;                  1    wreg      unsigned char 
  2839 ;; Registers used:
  2840 ;;		wreg, fsr1l, fsr1h, fsr2l, fsr2h, status,2, status,0, tblptrl, tblptrh, tblptru, cstack
  2841 ;; Tracked objects:
  2842 ;;		On entry : 0/0
  2843 ;;		On exit  : 0/0
  2844 ;;		Unchanged: 0/0
  2845 ;; Data sizes:     COMRAM   BANK0   BANK1   BANK2   BANK3   BANK4   BANK5   BANK6   BANK7   BANK8   BANK9  BANK10  BANK1
      +1  BANK12  BANK13  BANK14  BANK15
  2846 ;;      Params:         1       0       0       0       0       0       0       0       0       0       0       0       
      +0       0       0       0       0
  2847 ;;      Locals:         1       0       0       0       0       0       0       0       0       0       0       0       
      +0       0       0       0       0
  2848 ;;      Temps:          0       0       0       0       0       0       0       0       0       0       0       0       
      +0       0       0       0       0
  2849 ;;      Totals:         2       0       0       0       0       0       0       0       0       0       0       0       
      +0       0       0       0       0
  2850 ;;Total ram usage:        2 bytes
  2851 ;; Hardware stack levels used: 1
  2852 ;; Hardware stack levels required when called: 7
  2853 ;; This function calls:
  2854 ;;		_memset
  2855 ;;		_sprintf
  2856 ;; This function is called by:
  2857 ;;		_main
  2858 ;; This function uses a non-reentrant model
  2859 ;;
  2860                           
  2861                           	psect	text12
  2862   00256A                     __ptext12:
  2863                           	callstack 0
  2864   00256A                     _convert_uint8_to_string:
  2865                           	callstack 23
  2866                           
  2867                           ;incstack = 0
  2868                           ;convert_uint8_to_string@num stored from wreg
  2869   00256A  6E68               	movwf	convert_uint8_to_string@num^0,c
  2870   00256C                     
  2871                           ;ECU_Layer/CHR_LCD/ecu_chr_lcd.c: 248:     if((((void*)0)==str)){
  2872   00256C  5067               	movf	convert_uint8_to_string@str^0,w,c
  2873   00256E  A4D8               	btfss	status,2,c
  2874   002570  EFBC  F012         	goto	u7411
  2875   002574  EFBE  F012         	goto	u7410
  2876   002578                     u7411:
  2877   002578  EFC0  F012         	goto	l8125
  2878   00257C                     u7410:
  2879   00257C                     
  2880                           ;ECU_Layer/CHR_LCD/ecu_chr_lcd.c: 250:     }else {
  2881   00257C  EFD5  F012         	goto	l160
  2882   002580                     l8125:
  2883                           
  2884                           ;ECU_Layer/CHR_LCD/ecu_chr_lcd.c: 251:        memset(str , '\0', 4);
  2885   002580  C067  F03D         	movff	convert_uint8_to_string@str,memset@dest
  2886   002584  0E00               	movlw	0
  2887   002586  6E3F               	movwf	(memset@c+1)^0,c
  2888   002588  0E00               	movlw	0
  2889   00258A  6E3E               	movwf	memset@c^0,c
  2890   00258C  0E00               	movlw	0
  2891   00258E  6E41               	movwf	(memset@n+1)^0,c
  2892   002590  0E04               	movlw	4
  2893   002592  6E40               	movwf	memset@n^0,c
  2894   002594  ECD2  F013         	call	_memset	;wreg free
  2895   002598                     
  2896                           ;ECU_Layer/CHR_LCD/ecu_chr_lcd.c: 252:         sprintf(str , "%i" , num);
  2897   002598  C067  F056         	movff	convert_uint8_to_string@str,sprintf@s
  2898   00259C  0E58               	movlw	low STR_1
  2899   00259E  6E57               	movwf	sprintf@fmt^0,c
  2900   0025A0  C068  F058         	movff	convert_uint8_to_string@num,?_sprintf+2
  2901   0025A4  6A59               	clrf	(?_sprintf+3)^0,c
  2902   0025A6  EC6C  F013         	call	_sprintf	;wreg free
  2903   0025AA                     l160:
  2904   0025AA  0012               	return		;funcret
  2905   0025AC                     __end_of_convert_uint8_to_string:
  2906                           	callstack 0
  2907                           
  2908 ;; *************** function _sprintf *****************
  2909 ;; Defined at:
  2910 ;;		line 9 in file "C:\Program Files\Microchip\xc8\v2.45\pic\sources\c99\common\nf_sprintf.c"
  2911 ;; Parameters:    Size  Location     Type
  2912 ;;  s               1   26[COMRAM] PTR unsigned char 
  2913 ;;		 -> str(5), convert_uint16_to_string@temp(6), 
  2914 ;;  fmt             1   27[COMRAM] PTR const unsigned char 
  2915 ;;		 -> STR_3(3), STR_2(3), STR_1(3), 
  2916 ;; Auto vars:     Size  Location     Type
  2917 ;;  f              12   31[COMRAM] struct _IO_FILE
  2918 ;;  ret             2    0        int 
  2919 ;;  ap              1   30[COMRAM] PTR void [1]
  2920 ;;		 -> ?_sprintf(2), 
  2921 ;; Return value:  Size  Location     Type
  2922 ;;                  2   26[COMRAM] int 
  2923 ;; Registers used:
  2924 ;;		wreg, fsr1l, fsr1h, fsr2l, fsr2h, status,2, status,0, tblptrl, tblptrh, tblptru, cstack
  2925 ;; Tracked objects:
  2926 ;;		On entry : 0/0
  2927 ;;		On exit  : 0/0
  2928 ;;		Unchanged: 0/0
  2929 ;; Data sizes:     COMRAM   BANK0   BANK1   BANK2   BANK3   BANK4   BANK5   BANK6   BANK7   BANK8   BANK9  BANK10  BANK1
      +1  BANK12  BANK13  BANK14  BANK15
  2930 ;;      Params:         4       0       0       0       0       0       0       0       0       0       0       0       
      +0       0       0       0       0
  2931 ;;      Locals:        13       0       0       0       0       0       0       0       0       0       0       0       
      +0       0       0       0       0
  2932 ;;      Temps:          0       0       0       0       0       0       0       0       0       0       0       0       
      +0       0       0       0       0
  2933 ;;      Totals:        17       0       0       0       0       0       0       0       0       0       0       0       
      +0       0       0       0       0
  2934 ;;Total ram usage:       17 bytes
  2935 ;; Hardware stack levels used: 1
  2936 ;; Hardware stack levels required when called: 6
  2937 ;; This function calls:
  2938 ;;		_vfprintf
  2939 ;; This function is called by:
  2940 ;;		_convert_uint8_to_string
  2941 ;;		_convert_uint16_to_string
  2942 ;;		_convert_uint32_to_string
  2943 ;; This function uses a non-reentrant model
  2944 ;;
  2945                           
  2946                           	psect	text13
  2947   0026D8                     __ptext13:
  2948                           	callstack 0
  2949   0026D8                     _sprintf:
  2950                           	callstack 23
  2951   0026D8  0E58               	movlw	low (?_sprintf+2)
  2952   0026DA  6E5A               	movwf	sprintf@ap^0,c
  2953   0026DC  C056  F05B         	movff	sprintf@s,sprintf@f
  2954   0026E0  0E00               	movlw	0
  2955   0026E2  6E5F               	movwf	(sprintf@f+4)^0,c
  2956   0026E4  0E00               	movlw	0
  2957   0026E6  6E5E               	movwf	(sprintf@f+3)^0,c
  2958   0026E8  0E00               	movlw	0
  2959   0026EA  6E66               	movwf	(sprintf@f+11)^0,c
  2960   0026EC  0E00               	movlw	0
  2961   0026EE  6E65               	movwf	(sprintf@f+10)^0,c
  2962   0026F0  0E5B               	movlw	low sprintf@f
  2963   0026F2  6E52               	movwf	vfprintf@fp^0,c
  2964   0026F4  C057  F053         	movff	sprintf@fmt,vfprintf@fmt
  2965   0026F8  0E5A               	movlw	low sprintf@ap
  2966   0026FA  6E54               	movwf	vfprintf@ap^0,c
  2967   0026FC  ECD6  F012         	call	_vfprintf	;wreg free
  2968   002700  5056               	movf	sprintf@s^0,w,c
  2969   002702  245E               	addwf	(sprintf@f+3)^0,w,c
  2970   002704  6ED9               	movwf	fsr2l,c
  2971   002706  6ADA               	clrf	fsr2h,c
  2972   002708  6ADF               	clrf	indf2,c
  2973   00270A  0012               	return		;funcret
  2974   00270C                     __end_of_sprintf:
  2975                           	callstack 0
  2976                           
  2977 ;; *************** function _vfprintf *****************
  2978 ;; Defined at:
  2979 ;;		line 1817 in file "C:\Program Files\Microchip\xc8\v2.45\pic\sources\c99\common\doprnt.c"
  2980 ;; Parameters:    Size  Location     Type
  2981 ;;  fp              1   22[COMRAM] PTR struct _IO_FILE
  2982 ;;		 -> sprintf@f(12), 
  2983 ;;  fmt             1   23[COMRAM] PTR const unsigned char 
  2984 ;;		 -> STR_3(3), STR_2(3), STR_1(3), 
  2985 ;;  ap              1   24[COMRAM] PTR PTR void 
  2986 ;;		 -> sprintf@ap(1), 
  2987 ;; Auto vars:     Size  Location     Type
  2988 ;;  cfmt            1   25[COMRAM] PTR unsigned char 
  2989 ;;		 -> STR_3(3), STR_2(3), STR_1(3), 
  2990 ;; Return value:  Size  Location     Type
  2991 ;;                  2   22[COMRAM] int 
  2992 ;; Registers used:
  2993 ;;		wreg, fsr1l, fsr1h, fsr2l, fsr2h, status,2, status,0, tblptrl, tblptrh, tblptru, cstack
  2994 ;; Tracked objects:
  2995 ;;		On entry : 0/0
  2996 ;;		On exit  : 0/0
  2997 ;;		Unchanged: 0/0
  2998 ;; Data sizes:     COMRAM   BANK0   BANK1   BANK2   BANK3   BANK4   BANK5   BANK6   BANK7   BANK8   BANK9  BANK10  BANK1
      +1  BANK12  BANK13  BANK14  BANK15
  2999 ;;      Params:         3       0       0       0       0       0       0       0       0       0       0       0       
      +0       0       0       0       0
  3000 ;;      Locals:         1       0       0       0       0       0       0       0       0       0       0       0       
      +0       0       0       0       0
  3001 ;;      Temps:          0       0       0       0       0       0       0       0       0       0       0       0       
      +0       0       0       0       0
  3002 ;;      Totals:         4       0       0       0       0       0       0       0       0       0       0       0       
      +0       0       0       0       0
  3003 ;;Total ram usage:        4 bytes
  3004 ;; Hardware stack levels used: 1
  3005 ;; Hardware stack levels required when called: 5
  3006 ;; This function calls:
  3007 ;;		_vfpfcnvrt
  3008 ;; This function is called by:
  3009 ;;		_sprintf
  3010 ;; This function uses a non-reentrant model
  3011 ;;
  3012                           
  3013                           	psect	text14
  3014   0025AC                     __ptext14:
  3015                           	callstack 0
  3016   0025AC                     _vfprintf:
  3017                           	callstack 23
  3018   0025AC                     
  3019                           ;C:\Program Files\Microchip\xc8\v2.45\pic\sources\c99\common\doprnt.c: 1817: int vfprint
      +                          f(FILE *fp, const char *fmt, va_list ap);C:\Program Files\Microchip\xc8\v2.45\pic\source
      +                          s\c99\common\doprnt.c: 1818: {;C:\Program Files\Microchip\xc8\v2.45\pic\sources\c99\comm
      +                          on\doprnt.c: 1820:     char *cfmt;;C:\Program Files\Microchip\xc8\v2.45\pic\sources\c99\
      +                          common\doprnt.c: 1822:     cfmt = (char *)fmt;
  3020   0025AC  C053  F055         	movff	vfprintf@fmt,vfprintf@cfmt
  3021                           
  3022                           ;C:\Program Files\Microchip\xc8\v2.45\pic\sources\c99\common\doprnt.c: 1826:     while (
      +                          *cfmt) {
  3023   0025B0  EFE2  F012         	goto	l7797
  3024   0025B4                     l7795:
  3025                           
  3026                           ;C:\Program Files\Microchip\xc8\v2.45\pic\sources\c99\common\doprnt.c: 1830:    vfpfcnvr
      +                          t(fp, &cfmt, ap);
  3027   0025B4  C052  F047         	movff	vfprintf@fp,vfpfcnvrt@fp
  3028   0025B8  0E55               	movlw	low vfprintf@cfmt
  3029   0025BA  6E48               	movwf	vfpfcnvrt@fmt^0,c
  3030   0025BC  C054  F049         	movff	vfprintf@ap,vfpfcnvrt@ap
  3031   0025C0  ECA0  F00B         	call	_vfpfcnvrt	;wreg free
  3032   0025C4                     l7797:
  3033                           
  3034                           ;C:\Program Files\Microchip\xc8\v2.45\pic\sources\c99\common\doprnt.c: 1826:     while (
      +                          *cfmt) {
  3035   0025C4  C055  FFF6         	movff	vfprintf@cfmt,tblptrl
  3036   0025C8                     	if	1	;There is more than 1 active tblptr byte
  3037   0025C8  0E10               	movlw	high __smallconst
  3038   0025CA  6EF7               	movwf	tblptrh,c
  3039   0025CC                     	endif
  3040   0025CC                     	if	1	;Program memory is < 0x10000, tblptru is always zero
  3041   0025CC  6AF8               	clrf	tblptru,c
  3042   0025CE                     	endif
  3043   0025CE                     	if	0	;tblptru may be non-zero
  3044   0025CE                     	endif
  3045   0025CE  0008               	tblrd		*
  3046   0025D0  50F5               	movf	tablat,w,c
  3047   0025D2  0900               	iorlw	0
  3048   0025D4  A4D8               	btfss	status,2,c
  3049   0025D6  EFEF  F012         	goto	u7071
  3050   0025DA  EFF1  F012         	goto	u7070
  3051   0025DE                     u7071:
  3052   0025DE  EFDA  F012         	goto	l7795
  3053   0025E2                     u7070:
  3054   0025E2                     
  3055                           ;C:\Program Files\Microchip\xc8\v2.45\pic\sources\c99\common\doprnt.c: 1835:  return 0;
  3056   0025E2  0E00               	movlw	0
  3057   0025E4  6E53               	movwf	(?_vfprintf+1)^0,c
  3058   0025E6  0E00               	movlw	0
  3059   0025E8  6E52               	movwf	?_vfprintf^0,c
  3060   0025EA  0012               	return		;funcret
  3061   0025EC                     __end_of_vfprintf:
  3062                           	callstack 0
  3063                           
  3064 ;; *************** function _vfpfcnvrt *****************
  3065 ;; Defined at:
  3066 ;;		line 1177 in file "C:\Program Files\Microchip\xc8\v2.45\pic\sources\c99\common\doprnt.c"
  3067 ;; Parameters:    Size  Location     Type
  3068 ;;  fp              1   11[COMRAM] PTR struct _IO_FILE
  3069 ;;		 -> sprintf@f(12), 
  3070 ;;  fmt             1   12[COMRAM] PTR PTR unsigned char 
  3071 ;;		 -> vfprintf@cfmt(1), 
  3072 ;;  ap              1   13[COMRAM] PTR PTR void 
  3073 ;;		 -> sprintf@ap(1), 
  3074 ;; Auto vars:     Size  Location     Type
  3075 ;;  convarg         4   17[COMRAM] struct .
  3076 ;;  c               1   21[COMRAM] unsigned char 
  3077 ;;  cp              1   16[COMRAM] PTR unsigned char 
  3078 ;;		 -> STR_3(3), STR_2(3), STR_1(3), 
  3079 ;;  done            1   15[COMRAM] _Bool 
  3080 ;; Return value:  Size  Location     Type
  3081 ;;                  1    wreg      void 
  3082 ;; Registers used:
  3083 ;;		wreg, fsr1l, fsr1h, fsr2l, fsr2h, status,2, status,0, tblptrl, tblptrh, tblptru, cstack
  3084 ;; Tracked objects:
  3085 ;;		On entry : 0/0
  3086 ;;		On exit  : 0/0
  3087 ;;		Unchanged: 0/0
  3088 ;; Data sizes:     COMRAM   BANK0   BANK1   BANK2   BANK3   BANK4   BANK5   BANK6   BANK7   BANK8   BANK9  BANK10  BANK1
      +1  BANK12  BANK13  BANK14  BANK15
  3089 ;;      Params:         3       0       0       0       0       0       0       0       0       0       0       0       
      +0       0       0       0       0
  3090 ;;      Locals:         7       0       0       0       0       0       0       0       0       0       0       0       
      +0       0       0       0       0
  3091 ;;      Temps:          1       0       0       0       0       0       0       0       0       0       0       0       
      +0       0       0       0       0
  3092 ;;      Totals:        11       0       0       0       0       0       0       0       0       0       0       0       
      +0       0       0       0       0
  3093 ;;Total ram usage:       11 bytes
  3094 ;; Hardware stack levels used: 1
  3095 ;; Hardware stack levels required when called: 4
  3096 ;; This function calls:
  3097 ;;		___awdiv
  3098 ;;		___awmod
  3099 ;;		_abs
  3100 ;;		_fputc
  3101 ;; This function is called by:
  3102 ;;		_vfprintf
  3103 ;; This function uses a non-reentrant model
  3104 ;;
  3105                           
  3106                           	psect	text15
  3107   001740                     __ptext15:
  3108                           	callstack 0
  3109   001740                     _vfpfcnvrt:
  3110                           	callstack 23
  3111   001740                     
  3112                           ;C:\Program Files\Microchip\xc8\v2.45\pic\sources\c99\common\doprnt.c: 1177: vfpfcnvrt(F
      +                          ILE *fp, char *fmt[], va_list ap);C:\Program Files\Microchip\xc8\v2.45\pic\sources\c99\c
      +                          ommon\doprnt.c: 1178: {;C:\Program Files\Microchip\xc8\v2.45\pic\sources\c99\common\dopr
      +                          nt.c: 1179:     char c, *cp;;C:\Program Files\Microchip\xc8\v2.45\pic\sources\c99\common
      +                          \doprnt.c: 1180:     _Bool done;;C:\Program Files\Microchip\xc8\v2.45\pic\sources\c99\co
      +                          mmon\doprnt.c: 1188:  } convarg;;C:\Program Files\Microchip\xc8\v2.45\pic\sources\c99\co
      +                          mmon\doprnt.c: 1201:     if ((*fmt)[0] == '%') {
  3113   001740  5048               	movf	vfpfcnvrt@fmt^0,w,c
  3114   001742  6ED9               	movwf	fsr2l,c
  3115   001744  6ADA               	clrf	fsr2h,c
  3116   001746  CFDF FFF6          	movff	indf2,tblptrl
  3117   00174A                     	if	1	;There is more than 1 active tblptr byte
  3118   00174A  0E10               	movlw	high __smallconst
  3119   00174C  6EF7               	movwf	tblptrh,c
  3120   00174E                     	endif
  3121   00174E                     	if	1	;Program memory is < 0x10000, tblptru is always zero
  3122   00174E  6AF8               	clrf	tblptru,c
  3123   001750                     	endif
  3124   001750                     	if	0	;tblptru may be non-zero
  3125   001750                     	endif
  3126   001750  0008               	tblrd		*
  3127   001752  50F5               	movf	tablat,w,c
  3128   001754  0A25               	xorlw	37
  3129   001756  A4D8               	btfss	status,2,c
  3130   001758  EFB0  F00B         	goto	u6901
  3131   00175C  EFB2  F00B         	goto	u6900
  3132   001760                     u6901:
  3133   001760  EF6E  F00C         	goto	l7727
  3134   001764                     u6900:
  3135   001764                     
  3136                           ;C:\Program Files\Microchip\xc8\v2.45\pic\sources\c99\common\doprnt.c: 1202:         ++*
      +                          fmt;
  3137   001764  5048               	movf	vfpfcnvrt@fmt^0,w,c
  3138   001766  6ED9               	movwf	fsr2l,c
  3139   001768  6ADA               	clrf	fsr2h,c
  3140   00176A  2ADF               	incf	indf2,f,c
  3141   00176C                     
  3142                           ;C:\Program Files\Microchip\xc8\v2.45\pic\sources\c99\common\doprnt.c: 1204:         fla
      +                          gs = width = 0;
  3143   00176C  0E00               	movlw	0
  3144   00176E  0100               	movlb	0	; () banked
  3145   001770  6FA7               	movwf	(_width+1)& (0+255),b
  3146   001772  0E00               	movlw	0
  3147   001774  6FA6               	movwf	_width& (0+255),b
  3148   001776  C0A6  F02F         	movff	_width,_flags
  3149   00177A                     
  3150                           ; BSR set to: 0
  3151                           ;C:\Program Files\Microchip\xc8\v2.45\pic\sources\c99\common\doprnt.c: 1205:         pre
      +                          c = -1;
  3152   00177A  69A8               	setf	_prec& (0+255),b
  3153   00177C  69A9               	setf	(_prec+1)& (0+255),b
  3154   00177E                     
  3155                           ; BSR set to: 0
  3156                           ;C:\Program Files\Microchip\xc8\v2.45\pic\sources\c99\common\doprnt.c: 1291:   cp = *fmt
      +                          ;
  3157   00177E  5048               	movf	vfpfcnvrt@fmt^0,w,c
  3158   001780  6ED9               	movwf	fsr2l,c
  3159   001782  6ADA               	clrf	fsr2h,c
  3160   001784  50DF               	movf	indf2,w,c
  3161   001786  6E4C               	movwf	vfpfcnvrt@cp^0,c
  3162   001788                     
  3163                           ; BSR set to: 0
  3164                           ;C:\Program Files\Microchip\xc8\v2.45\pic\sources\c99\common\doprnt.c: 1361:   if (*cp =
      +                          = 'd' || *cp == 'i') {
  3165   001788  C04C  FFF6         	movff	vfpfcnvrt@cp,tblptrl
  3166   00178C                     	if	1	;There is more than 1 active tblptr byte
  3167   00178C  0E10               	movlw	high __smallconst
  3168   00178E  6EF7               	movwf	tblptrh,c
  3169   001790                     	endif
  3170   001790                     	if	1	;Program memory is < 0x10000, tblptru is always zero
  3171   001790  6AF8               	clrf	tblptru,c
  3172   001792                     	endif
  3173   001792                     	if	0	;tblptru may be non-zero
  3174   001792                     	endif
  3175   001792  0008               	tblrd		*
  3176   001794  50F5               	movf	tablat,w,c
  3177   001796  0A64               	xorlw	100
  3178   001798  B4D8               	btfsc	status,2,c
  3179   00179A  EFD1  F00B         	goto	u6911
  3180   00179E  EFD3  F00B         	goto	u6910
  3181   0017A2                     u6911:
  3182   0017A2  EFE2  F00B         	goto	l7697
  3183   0017A6                     u6910:
  3184   0017A6                     
  3185                           ; BSR set to: 0
  3186   0017A6  C04C  FFF6         	movff	vfpfcnvrt@cp,tblptrl
  3187   0017AA                     	if	1	;There is more than 1 active tblptr byte
  3188   0017AA  0E10               	movlw	high __smallconst
  3189   0017AC  6EF7               	movwf	tblptrh,c
  3190   0017AE                     	endif
  3191   0017AE                     	if	1	;Program memory is < 0x10000, tblptru is always zero
  3192   0017AE  6AF8               	clrf	tblptru,c
  3193   0017B0                     	endif
  3194   0017B0                     	if	0	;tblptru may be non-zero
  3195   0017B0                     	endif
  3196   0017B0  0008               	tblrd		*
  3197   0017B2  50F5               	movf	tablat,w,c
  3198   0017B4  0A69               	xorlw	105
  3199   0017B6  A4D8               	btfss	status,2,c
  3200   0017B8  EFE0  F00B         	goto	u6921
  3201   0017BC  EFE2  F00B         	goto	u6920
  3202   0017C0                     u6921:
  3203   0017C0  EF68  F00C         	goto	l7723
  3204   0017C4                     u6920:
  3205   0017C4                     l7697:
  3206                           
  3207                           ; BSR set to: 0
  3208                           ;C:\Program Files\Microchip\xc8\v2.45\pic\sources\c99\common\doprnt.c: 1404:    convarg.
      +                          sint = (vfpf_sint_t)(int)(*(int *)__va_arg(*(int **)ap, (int)0));
  3209   0017C4  5049               	movf	vfpfcnvrt@ap^0,w,c
  3210   0017C6  6ED9               	movwf	fsr2l,c
  3211   0017C8  6ADA               	clrf	fsr2h,c
  3212   0017CA  0E02               	movlw	2
  3213   0017CC  26DF               	addwf	indf2,f,c
  3214   0017CE  5CDF               	subwf	indf2,w,c
  3215   0017D0  6ED9               	movwf	fsr2l,c
  3216   0017D2  6ADA               	clrf	fsr2h,c
  3217   0017D4  CFDE F04D          	movff	postinc2,vfpfcnvrt@convarg
  3218   0017D8  CFDE F04E          	movff	postinc2,vfpfcnvrt@convarg+1
  3219   0017DC                     
  3220                           ; BSR set to: 0
  3221                           ;C:\Program Files\Microchip\xc8\v2.45\pic\sources\c99\common\doprnt.c: 1406:    *fmt = c
      +                          p+1;
  3222   0017DC  5048               	movf	vfpfcnvrt@fmt^0,w,c
  3223   0017DE  6ED9               	movwf	fsr2l,c
  3224   0017E0  6ADA               	clrf	fsr2h,c
  3225   0017E2  284C               	incf	vfpfcnvrt@cp^0,w,c
  3226   0017E4  6EDF               	movwf	indf2,c
  3227   0017E6                     
  3228                           ; BSR set to: 0
  3229                           ;C:\Program Files\Microchip\xc8\v2.45\pic\sources\c99\common\doprnt.c: 1408:    c = size
      +                          of(dbuf);
  3230   0017E6  0E20               	movlw	32
  3231   0017E8  6E51               	movwf	vfpfcnvrt@c^0,c
  3232                           
  3233                           ;C:\Program Files\Microchip\xc8\v2.45\pic\sources\c99\common\doprnt.c: 1409:    done = c
      +                          onvarg.sint < 0;
  3234   0017EA  BE4E               	btfsc	(vfpfcnvrt@convarg+1)^0,7,c
  3235   0017EC  EFFA  F00B         	goto	u6931
  3236   0017F0  EFFD  F00B         	goto	u6930
  3237   0017F4                     u6931:
  3238   0017F4  0E01               	movlw	1
  3239   0017F6  EFFE  F00B         	goto	u6940
  3240   0017FA                     u6930:
  3241   0017FA  0E00               	movlw	0
  3242   0017FC                     u6940:
  3243   0017FC  6E4B               	movwf	vfpfcnvrt@done^0,c
  3244   0017FE                     l7703:
  3245                           
  3246                           ;C:\Program Files\Microchip\xc8\v2.45\pic\sources\c99\common\doprnt.c: 1411:     dbuf[--
      +                          c] = abs(convarg.sint % 10) + '0';
  3247   0017FE  0651               	decf	vfpfcnvrt@c^0,f,c
  3248   001800  5051               	movf	vfpfcnvrt@c^0,w,c
  3249   001802  0F80               	addlw	low _dbuf
  3250   001804  6ED9               	movwf	fsr2l,c
  3251   001806  6ADA               	clrf	fsr2h,c
  3252   001808  C04D  F03D         	movff	vfpfcnvrt@convarg,___awmod@dividend
  3253   00180C  C04E  F03E         	movff	vfpfcnvrt@convarg+1,___awmod@dividend+1
  3254   001810  0E00               	movlw	0
  3255   001812  6E40               	movwf	(___awmod@divisor+1)^0,c
  3256   001814  0E0A               	movlw	10
  3257   001816  6E3F               	movwf	___awmod@divisor^0,c
  3258   001818  EC54  F00F         	call	___awmod	;wreg free
  3259   00181C  C03D  F043         	movff	?___awmod,abs@a
  3260   001820  C03E  F044         	movff	?___awmod+1,abs@a+1
  3261   001824  EC86  F013         	call	_abs	;wreg free
  3262   001828  5043               	movf	?_abs^0,w,c
  3263   00182A  0F30               	addlw	48
  3264   00182C  6EDF               	movwf	indf2,c
  3265   00182E                     
  3266                           ;C:\Program Files\Microchip\xc8\v2.45\pic\sources\c99\common\doprnt.c: 1412:     convarg
      +                          .sint /= 10;
  3267   00182E  C04D  F03D         	movff	vfpfcnvrt@convarg,___awdiv@dividend
  3268   001832  C04E  F03E         	movff	vfpfcnvrt@convarg+1,___awdiv@dividend+1
  3269   001836  0E00               	movlw	0
  3270   001838  6E40               	movwf	(___awdiv@divisor+1)^0,c
  3271   00183A  0E0A               	movlw	10
  3272   00183C  6E3F               	movwf	___awdiv@divisor^0,c
  3273   00183E  ECF2  F00E         	call	___awdiv	;wreg free
  3274   001842  C03D  F04D         	movff	?___awdiv,vfpfcnvrt@convarg
  3275   001846  C03E  F04E         	movff	?___awdiv+1,vfpfcnvrt@convarg+1
  3276   00184A                     
  3277                           ;C:\Program Files\Microchip\xc8\v2.45\pic\sources\c99\common\doprnt.c: 1416:    } while 
      +                          (convarg.sint != 0 && c != 0);
  3278   00184A  504D               	movf	vfpfcnvrt@convarg^0,w,c
  3279   00184C  104E               	iorwf	(vfpfcnvrt@convarg+1)^0,w,c
  3280   00184E  B4D8               	btfsc	status,2,c
  3281   001850  EF2C  F00C         	goto	u6951
  3282   001854  EF2E  F00C         	goto	u6950
  3283   001858                     u6951:
  3284   001858  EF36  F00C         	goto	l7711
  3285   00185C                     u6950:
  3286   00185C  5051               	movf	vfpfcnvrt@c^0,w,c
  3287   00185E  A4D8               	btfss	status,2,c
  3288   001860  EF34  F00C         	goto	u6961
  3289   001864  EF36  F00C         	goto	u6960
  3290   001868                     u6961:
  3291   001868  EFFF  F00B         	goto	l7703
  3292   00186C                     u6960:
  3293   00186C                     l7711:
  3294                           
  3295                           ;C:\Program Files\Microchip\xc8\v2.45\pic\sources\c99\common\doprnt.c: 1417:    if (c !=
      +                           0 && done) {
  3296   00186C  5051               	movf	vfpfcnvrt@c^0,w,c
  3297   00186E  B4D8               	btfsc	status,2,c
  3298   001870  EF3C  F00C         	goto	u6971
  3299   001874  EF3E  F00C         	goto	u6970
  3300   001878                     u6971:
  3301   001878  EF5D  F00C         	goto	l7721
  3302   00187C                     u6970:
  3303   00187C  504B               	movf	vfpfcnvrt@done^0,w,c
  3304   00187E  B4D8               	btfsc	status,2,c
  3305   001880  EF44  F00C         	goto	u6981
  3306   001884  EF46  F00C         	goto	u6980
  3307   001888                     u6981:
  3308   001888  EF5D  F00C         	goto	l7721
  3309   00188C                     u6980:
  3310   00188C                     
  3311                           ;C:\Program Files\Microchip\xc8\v2.45\pic\sources\c99\common\doprnt.c: 1418:     dbuf[--
      +                          c] = '-';
  3312   00188C  0651               	decf	vfpfcnvrt@c^0,f,c
  3313   00188E  5051               	movf	vfpfcnvrt@c^0,w,c
  3314   001890  0F80               	addlw	low _dbuf
  3315   001892  6ED9               	movwf	fsr2l,c
  3316   001894  6ADA               	clrf	fsr2h,c
  3317   001896  0E2D               	movlw	45
  3318   001898  6EDF               	movwf	indf2,c
  3319   00189A  EF5D  F00C         	goto	l7721
  3320   00189E                     l7717:
  3321                           
  3322                           ;C:\Program Files\Microchip\xc8\v2.45\pic\sources\c99\common\doprnt.c: 1424:     fputc(d
      +                          buf[c++], fp);
  3323   00189E  5051               	movf	vfpfcnvrt@c^0,w,c
  3324   0018A0  0F80               	addlw	low _dbuf
  3325   0018A2  6ED9               	movwf	fsr2l,c
  3326   0018A4  6ADA               	clrf	fsr2h,c
  3327   0018A6  50DF               	movf	indf2,w,c
  3328   0018A8  6E4A               	movwf	??_vfpfcnvrt^0,c
  3329   0018AA  504A               	movf	??_vfpfcnvrt^0,w,c
  3330   0018AC  6E3D               	movwf	fputc@c^0,c
  3331   0018AE  6A3E               	clrf	(fputc@c+1)^0,c
  3332   0018B0  C047  F03F         	movff	vfpfcnvrt@fp,fputc@fp
  3333   0018B4  ECAC  F00F         	call	_fputc	;wreg free
  3334   0018B8  2A51               	incf	vfpfcnvrt@c^0,f,c
  3335   0018BA                     l7721:
  3336                           
  3337                           ;C:\Program Files\Microchip\xc8\v2.45\pic\sources\c99\common\doprnt.c: 1423:    while (c
      +                           != sizeof(dbuf)) {
  3338   0018BA  0E20               	movlw	32
  3339   0018BC  1851               	xorwf	vfpfcnvrt@c^0,w,c
  3340   0018BE  A4D8               	btfss	status,2,c
  3341   0018C0  EF64  F00C         	goto	u6991
  3342   0018C4  EF66  F00C         	goto	u6990
  3343   0018C8                     u6991:
  3344   0018C8  EF4F  F00C         	goto	l7717
  3345   0018CC                     u6990:
  3346   0018CC  EF80  F00C         	goto	l2531
  3347   0018D0                     l7723:
  3348                           
  3349                           ;C:\Program Files\Microchip\xc8\v2.45\pic\sources\c99\common\doprnt.c: 1806:         ++*
      +                          fmt;
  3350   0018D0  5048               	movf	vfpfcnvrt@fmt^0,w,c
  3351   0018D2  6ED9               	movwf	fsr2l,c
  3352   0018D4  6ADA               	clrf	fsr2h,c
  3353   0018D6  2ADF               	incf	indf2,f,c
  3354   0018D8  EF80  F00C         	goto	l2531
  3355   0018DC                     l7727:
  3356                           
  3357                           ;C:\Program Files\Microchip\xc8\v2.45\pic\sources\c99\common\doprnt.c: 1811:     fputc((
      +                          int)(*fmt)[0], fp);
  3358   0018DC  5048               	movf	vfpfcnvrt@fmt^0,w,c
  3359   0018DE  6ED9               	movwf	fsr2l,c
  3360   0018E0  6ADA               	clrf	fsr2h,c
  3361   0018E2  CFDF FFF6          	movff	indf2,tblptrl
  3362   0018E6                     	if	1	;There is more than 1 active tblptr byte
  3363   0018E6  0E10               	movlw	high __smallconst
  3364   0018E8  6EF7               	movwf	tblptrh,c
  3365   0018EA                     	endif
  3366   0018EA                     	if	1	;Program memory is < 0x10000, tblptru is always zero
  3367   0018EA  6AF8               	clrf	tblptru,c
  3368   0018EC                     	endif
  3369   0018EC                     	if	0	;tblptru may be non-zero
  3370   0018EC                     	endif
  3371   0018EC  0008               	tblrd		*
  3372   0018EE  50F5               	movf	tablat,w,c
  3373   0018F0  6E3D               	movwf	fputc@c^0,c
  3374   0018F2  6A3E               	clrf	(fputc@c+1)^0,c
  3375   0018F4  C047  F03F         	movff	vfpfcnvrt@fp,fputc@fp
  3376   0018F8  ECAC  F00F         	call	_fputc	;wreg free
  3377   0018FC  EF68  F00C         	goto	l7723
  3378   001900                     l2531:
  3379   001900  0012               	return		;funcret
  3380   001902                     __end_of_vfpfcnvrt:
  3381                           	callstack 0
  3382                           
  3383 ;; *************** function _fputc *****************
  3384 ;; Defined at:
  3385 ;;		line 8 in file "C:\Program Files\Microchip\xc8\v2.45\pic\sources\c99\common\nf_fputc.c"
  3386 ;; Parameters:    Size  Location     Type
  3387 ;;  c               2    1[COMRAM] int 
  3388 ;;  fp              1    3[COMRAM] PTR struct _IO_FILE
  3389 ;;		 -> sprintf@f(12), 
  3390 ;; Auto vars:     Size  Location     Type
  3391 ;;		None
  3392 ;; Return value:  Size  Location     Type
  3393 ;;                  2    1[COMRAM] int 
  3394 ;; Registers used:
  3395 ;;		wreg, fsr1l, fsr1h, fsr2l, fsr2h, status,2, status,0, cstack
  3396 ;; Tracked objects:
  3397 ;;		On entry : 0/0
  3398 ;;		On exit  : 0/0
  3399 ;;		Unchanged: 0/0
  3400 ;; Data sizes:     COMRAM   BANK0   BANK1   BANK2   BANK3   BANK4   BANK5   BANK6   BANK7   BANK8   BANK9  BANK10  BANK1
      +1  BANK12  BANK13  BANK14  BANK15
  3401 ;;      Params:         3       0       0       0       0       0       0       0       0       0       0       0       
      +0       0       0       0       0
  3402 ;;      Locals:         0       0       0       0       0       0       0       0       0       0       0       0       
      +0       0       0       0       0
  3403 ;;      Temps:          5       0       0       0       0       0       0       0       0       0       0       0       
      +0       0       0       0       0
  3404 ;;      Totals:         8       0       0       0       0       0       0       0       0       0       0       0       
      +0       0       0       0       0
  3405 ;;Total ram usage:        8 bytes
  3406 ;; Hardware stack levels used: 1
  3407 ;; Hardware stack levels required when called: 3
  3408 ;; This function calls:
  3409 ;;		_putch
  3410 ;; This function is called by:
  3411 ;;		_vfpfcnvrt
  3412 ;; This function uses a non-reentrant model
  3413 ;;
  3414                           
  3415                           	psect	text16
  3416   001F58                     __ptext16:
  3417                           	callstack 0
  3418   001F58                     _fputc:
  3419                           	callstack 23
  3420   001F58  503F               	movf	fputc@fp^0,w,c
  3421   001F5A  B4D8               	btfsc	status,2,c
  3422   001F5C  EFB2  F00F         	goto	u6781
  3423   001F60  EFB4  F00F         	goto	u6780
  3424   001F64                     u6781:
  3425   001F64  EFBC  F00F         	goto	l7637
  3426   001F68                     u6780:
  3427   001F68  503F               	movf	fputc@fp^0,w,c
  3428   001F6A  A4D8               	btfss	status,2,c
  3429   001F6C  EFBA  F00F         	goto	u6791
  3430   001F70  EFBC  F00F         	goto	u6790
  3431   001F74                     u6791:
  3432   001F74  EFC1  F00F         	goto	l7639
  3433   001F78                     u6790:
  3434   001F78                     l7637:
  3435   001F78  503D               	movf	fputc@c^0,w,c
  3436   001F7A  EC9E  F014         	call	_putch
  3437   001F7E  EF00  F010         	goto	l2556
  3438   001F82                     l7639:
  3439   001F82  503F               	movf	fputc@fp^0,w,c
  3440   001F84  6ED9               	movwf	fsr2l,c
  3441   001F86  6ADA               	clrf	fsr2h,c
  3442   001F88  0E0A               	movlw	10
  3443   001F8A  26D9               	addwf	fsr2l,f,c
  3444   001F8C  50DE               	movf	postinc2,w,c
  3445   001F8E  10DE               	iorwf	postinc2,w,c
  3446   001F90  B4D8               	btfsc	status,2,c
  3447   001F92  EFCD  F00F         	goto	u6801
  3448   001F96  EFCF  F00F         	goto	u6800
  3449   001F9A                     u6801:
  3450   001F9A  EFE8  F00F         	goto	l7643
  3451   001F9E                     u6800:
  3452   001F9E  503F               	movf	fputc@fp^0,w,c
  3453   001FA0  6ED9               	movwf	fsr2l,c
  3454   001FA2  6ADA               	clrf	fsr2h,c
  3455   001FA4  0E0A               	movlw	10
  3456   001FA6  26D9               	addwf	fsr2l,f,c
  3457   001FA8  503F               	movf	fputc@fp^0,w,c
  3458   001FAA  6EE1               	movwf	fsr1l,c
  3459   001FAC  6AE2               	clrf	fsr1h,c
  3460   001FAE  0E03               	movlw	3
  3461   001FB0  26E1               	addwf	fsr1l,f,c
  3462   001FB2  50DE               	movf	postinc2,w,c
  3463   001FB4  5CE6               	subwf	postinc1,w,c
  3464   001FB6  50E6               	movf	postinc1,w,c
  3465   001FB8  0A80               	xorlw	128
  3466   001FBA  6E44               	movwf	(??_fputc+4)^0,c
  3467   001FBC  50DE               	movf	postinc2,w,c
  3468   001FBE  0A80               	xorlw	128
  3469   001FC0  5844               	subwfb	(??_fputc+4)^0,w,c
  3470   001FC2  B0D8               	btfsc	status,0,c
  3471   001FC4  EFE6  F00F         	goto	u6811
  3472   001FC8  EFE8  F00F         	goto	u6810
  3473   001FCC                     u6811:
  3474   001FCC  EF00  F010         	goto	l2556
  3475   001FD0                     u6810:
  3476   001FD0                     l7643:
  3477   001FD0  503F               	movf	fputc@fp^0,w,c
  3478   001FD2  6ED9               	movwf	fsr2l,c
  3479   001FD4  6ADA               	clrf	fsr2h,c
  3480   001FD6  0E03               	movlw	3
  3481   001FD8  26D9               	addwf	fsr2l,f,c
  3482   001FDA  50DF               	movf	indf2,w,c
  3483   001FDC  6E40               	movwf	??_fputc^0,c
  3484   001FDE  503F               	movf	fputc@fp^0,w,c
  3485   001FE0  6ED9               	movwf	fsr2l,c
  3486   001FE2  6ADA               	clrf	fsr2h,c
  3487   001FE4  50DF               	movf	indf2,w,c
  3488   001FE6  2440               	addwf	??_fputc^0,w,c
  3489   001FE8  6ED9               	movwf	fsr2l,c
  3490   001FEA  6ADA               	clrf	fsr2h,c
  3491   001FEC  C03D  FFDF         	movff	fputc@c,indf2
  3492   001FF0  503F               	movf	fputc@fp^0,w,c
  3493   001FF2  6ED9               	movwf	fsr2l,c
  3494   001FF4  6ADA               	clrf	fsr2h,c
  3495   001FF6  0E03               	movlw	3
  3496   001FF8  26D9               	addwf	fsr2l,f,c
  3497   001FFA  2ADE               	incf	postinc2,f,c
  3498   001FFC  0E00               	movlw	0
  3499   001FFE  22DD               	addwfc	postdec2,f,c
  3500   002000                     l2556:
  3501   002000  0012               	return		;funcret
  3502   002002                     __end_of_fputc:
  3503                           	callstack 0
  3504                           
  3505 ;; *************** function _putch *****************
  3506 ;; Defined at:
  3507 ;;		line 7 in file "C:\Program Files\Microchip\xc8\v2.45\pic\sources\c99\common\putch.c"
  3508 ;; Parameters:    Size  Location     Type
  3509 ;;  c               1    wreg     unsigned char 
  3510 ;; Auto vars:     Size  Location     Type
  3511 ;;  c               1    0[COMRAM] unsigned char 
  3512 ;; Return value:  Size  Location     Type
  3513 ;;                  1    wreg      void 
  3514 ;; Registers used:
  3515 ;;		wreg
  3516 ;; Tracked objects:
  3517 ;;		On entry : 0/0
  3518 ;;		On exit  : 0/0
  3519 ;;		Unchanged: 0/0
  3520 ;; Data sizes:     COMRAM   BANK0   BANK1   BANK2   BANK3   BANK4   BANK5   BANK6   BANK7   BANK8   BANK9  BANK10  BANK1
      +1  BANK12  BANK13  BANK14  BANK15
  3521 ;;      Params:         0       0       0       0       0       0       0       0       0       0       0       0       
      +0       0       0       0       0
  3522 ;;      Locals:         0       0       0       0       0       0       0       0       0       0       0       0       
      +0       0       0       0       0
  3523 ;;      Temps:          0       0       0       0       0       0       0       0       0       0       0       0       
      +0       0       0       0       0
  3524 ;;      Totals:         0       0       0       0       0       0       0       0       0       0       0       0       
      +0       0       0       0       0
  3525 ;;Total ram usage:        0 bytes
  3526 ;; Hardware stack levels used: 1
  3527 ;; Hardware stack levels required when called: 2
  3528 ;; This function calls:
  3529 ;;		Nothing
  3530 ;; This function is called by:
  3531 ;;		_fputc
  3532 ;; This function uses a non-reentrant model
  3533 ;;
  3534                           
  3535                           	psect	text17
  3536   00293C                     __ptext17:
  3537                           	callstack 0
  3538   00293C                     _putch:
  3539                           	callstack 23
  3540   00293C  0012               	return		;funcret
  3541   00293E                     __end_of_putch:
  3542                           	callstack 0
  3543                           
  3544 ;; *************** function _abs *****************
  3545 ;; Defined at:
  3546 ;;		line 1 in file "C:\Program Files\Microchip\xc8\v2.45\pic\sources\c99\common\abs.c"
  3547 ;; Parameters:    Size  Location     Type
  3548 ;;  a               2    7[COMRAM] int 
  3549 ;; Auto vars:     Size  Location     Type
  3550 ;;		None
  3551 ;; Return value:  Size  Location     Type
  3552 ;;                  2    7[COMRAM] int 
  3553 ;; Registers used:
  3554 ;;		wreg, status,2, status,0
  3555 ;; Tracked objects:
  3556 ;;		On entry : 0/0
  3557 ;;		On exit  : 0/0
  3558 ;;		Unchanged: 0/0
  3559 ;; Data sizes:     COMRAM   BANK0   BANK1   BANK2   BANK3   BANK4   BANK5   BANK6   BANK7   BANK8   BANK9  BANK10  BANK1
      +1  BANK12  BANK13  BANK14  BANK15
  3560 ;;      Params:         2       0       0       0       0       0       0       0       0       0       0       0       
      +0       0       0       0       0
  3561 ;;      Locals:         0       0       0       0       0       0       0       0       0       0       0       0       
      +0       0       0       0       0
  3562 ;;      Temps:          2       0       0       0       0       0       0       0       0       0       0       0       
      +0       0       0       0       0
  3563 ;;      Totals:         4       0       0       0       0       0       0       0       0       0       0       0       
      +0       0       0       0       0
  3564 ;;Total ram usage:        4 bytes
  3565 ;; Hardware stack levels used: 1
  3566 ;; Hardware stack levels required when called: 2
  3567 ;; This function calls:
  3568 ;;		Nothing
  3569 ;; This function is called by:
  3570 ;;		_vfpfcnvrt
  3571 ;; This function uses a non-reentrant model
  3572 ;;
  3573                           
  3574                           	psect	text18
  3575   00270C                     __ptext18:
  3576                           	callstack 0
  3577   00270C                     _abs:
  3578                           	callstack 24
  3579   00270C  BE44               	btfsc	(abs@a+1)^0,7,c
  3580   00270E  EF8B  F013         	goto	u6821
  3581   002712  EF8D  F013         	goto	u6820
  3582   002716                     u6821:
  3583   002716  EF93  F013         	goto	l2541
  3584   00271A                     u6820:
  3585   00271A  C043  F043         	movff	abs@a,?_abs
  3586   00271E  C044  F044         	movff	abs@a+1,?_abs+1
  3587   002722  EF9F  F013         	goto	l2544
  3588   002726                     l2541:
  3589   002726  C043  F045         	movff	abs@a,??_abs
  3590   00272A  C044  F046         	movff	abs@a+1,??_abs+1
  3591   00272E  1E45               	comf	??_abs^0,f,c
  3592   002730  1E46               	comf	(??_abs+1)^0,f,c
  3593   002732  4A45               	infsnz	??_abs^0,f,c
  3594   002734  2A46               	incf	(??_abs+1)^0,f,c
  3595   002736  C045  F043         	movff	??_abs,?_abs
  3596   00273A  C046  F044         	movff	??_abs+1,?_abs+1
  3597   00273E                     l2544:
  3598   00273E  0012               	return		;funcret
  3599   002740                     __end_of_abs:
  3600                           	callstack 0
  3601                           
  3602 ;; *************** function ___awmod *****************
  3603 ;; Defined at:
  3604 ;;		line 7 in file "C:\Program Files\Microchip\xc8\v2.45\pic\sources\c99\common\awmod.c"
  3605 ;; Parameters:    Size  Location     Type
  3606 ;;  dividend        2    1[COMRAM] int 
  3607 ;;  divisor         2    3[COMRAM] int 
  3608 ;; Auto vars:     Size  Location     Type
  3609 ;;  sign            1    6[COMRAM] unsigned char 
  3610 ;;  counter         1    5[COMRAM] unsigned char 
  3611 ;; Return value:  Size  Location     Type
  3612 ;;                  2    1[COMRAM] int 
  3613 ;; Registers used:
  3614 ;;		wreg, status,2, status,0
  3615 ;; Tracked objects:
  3616 ;;		On entry : 0/0
  3617 ;;		On exit  : 0/0
  3618 ;;		Unchanged: 0/0
  3619 ;; Data sizes:     COMRAM   BANK0   BANK1   BANK2   BANK3   BANK4   BANK5   BANK6   BANK7   BANK8   BANK9  BANK10  BANK1
      +1  BANK12  BANK13  BANK14  BANK15
  3620 ;;      Params:         4       0       0       0       0       0       0       0       0       0       0       0       
      +0       0       0       0       0
  3621 ;;      Locals:         2       0       0       0       0       0       0       0       0       0       0       0       
      +0       0       0       0       0
  3622 ;;      Temps:          0       0       0       0       0       0       0       0       0       0       0       0       
      +0       0       0       0       0
  3623 ;;      Totals:         6       0       0       0       0       0       0       0       0       0       0       0       
      +0       0       0       0       0
  3624 ;;Total ram usage:        6 bytes
  3625 ;; Hardware stack levels used: 1
  3626 ;; Hardware stack levels required when called: 2
  3627 ;; This function calls:
  3628 ;;		Nothing
  3629 ;; This function is called by:
  3630 ;;		_vfpfcnvrt
  3631 ;; This function uses a non-reentrant model
  3632 ;;
  3633                           
  3634                           	psect	text19
  3635   001EA8                     __ptext19:
  3636                           	callstack 0
  3637   001EA8                     ___awmod:
  3638                           	callstack 24
  3639   001EA8  0E00               	movlw	0
  3640   001EAA  6E42               	movwf	___awmod@sign^0,c
  3641   001EAC  BE3E               	btfsc	(___awmod@dividend+1)^0,7,c
  3642   001EAE  EF5D  F00F         	goto	u6720
  3643   001EB2  EF5B  F00F         	goto	u6721
  3644   001EB6                     u6721:
  3645   001EB6  EF63  F00F         	goto	l7605
  3646   001EBA                     u6720:
  3647   001EBA  6C3D               	negf	___awmod@dividend^0,c
  3648   001EBC  1E3E               	comf	(___awmod@dividend+1)^0,f,c
  3649   001EBE  B0D8               	btfsc	status,0,c
  3650   001EC0  2A3E               	incf	(___awmod@dividend+1)^0,f,c
  3651   001EC2  0E01               	movlw	1
  3652   001EC4  6E42               	movwf	___awmod@sign^0,c
  3653   001EC6                     l7605:
  3654   001EC6  BE40               	btfsc	(___awmod@divisor+1)^0,7,c
  3655   001EC8  EF6A  F00F         	goto	u6730
  3656   001ECC  EF68  F00F         	goto	u6731
  3657   001ED0                     u6731:
  3658   001ED0  EF6E  F00F         	goto	l7609
  3659   001ED4                     u6730:
  3660   001ED4  6C3F               	negf	___awmod@divisor^0,c
  3661   001ED6  1E40               	comf	(___awmod@divisor+1)^0,f,c
  3662   001ED8  B0D8               	btfsc	status,0,c
  3663   001EDA  2A40               	incf	(___awmod@divisor+1)^0,f,c
  3664   001EDC                     l7609:
  3665   001EDC  503F               	movf	___awmod@divisor^0,w,c
  3666   001EDE  1040               	iorwf	(___awmod@divisor+1)^0,w,c
  3667   001EE0  B4D8               	btfsc	status,2,c
  3668   001EE2  EF75  F00F         	goto	u6741
  3669   001EE6  EF77  F00F         	goto	u6740
  3670   001EEA                     u6741:
  3671   001EEA  EF9B  F00F         	goto	l7625
  3672   001EEE                     u6740:
  3673   001EEE  0E01               	movlw	1
  3674   001EF0  6E41               	movwf	___awmod@counter^0,c
  3675   001EF2  EF7F  F00F         	goto	l7615
  3676   001EF6                     l7613:
  3677   001EF6  90D8               	bcf	status,0,c
  3678   001EF8  363F               	rlcf	___awmod@divisor^0,f,c
  3679   001EFA  3640               	rlcf	(___awmod@divisor+1)^0,f,c
  3680   001EFC  2A41               	incf	___awmod@counter^0,f,c
  3681   001EFE                     l7615:
  3682   001EFE  AE40               	btfss	(___awmod@divisor+1)^0,7,c
  3683   001F00  EF84  F00F         	goto	u6751
  3684   001F04  EF86  F00F         	goto	u6750
  3685   001F08                     u6751:
  3686   001F08  EF7B  F00F         	goto	l7613
  3687   001F0C                     u6750:
  3688   001F0C                     l7617:
  3689   001F0C  503F               	movf	___awmod@divisor^0,w,c
  3690   001F0E  5C3D               	subwf	___awmod@dividend^0,w,c
  3691   001F10  5040               	movf	(___awmod@divisor+1)^0,w,c
  3692   001F12  583E               	subwfb	(___awmod@dividend+1)^0,w,c
  3693   001F14  A0D8               	btfss	status,0,c
  3694   001F16  EF8F  F00F         	goto	u6761
  3695   001F1A  EF91  F00F         	goto	u6760
  3696   001F1E                     u6761:
  3697   001F1E  EF95  F00F         	goto	l7621
  3698   001F22                     u6760:
  3699   001F22  503F               	movf	___awmod@divisor^0,w,c
  3700   001F24  5E3D               	subwf	___awmod@dividend^0,f,c
  3701   001F26  5040               	movf	(___awmod@divisor+1)^0,w,c
  3702   001F28  5A3E               	subwfb	(___awmod@dividend+1)^0,f,c
  3703   001F2A                     l7621:
  3704   001F2A  90D8               	bcf	status,0,c
  3705   001F2C  3240               	rrcf	(___awmod@divisor+1)^0,f,c
  3706   001F2E  323F               	rrcf	___awmod@divisor^0,f,c
  3707   001F30  2E41               	decfsz	___awmod@counter^0,f,c
  3708   001F32  EF86  F00F         	goto	l7617
  3709   001F36                     l7625:
  3710   001F36  5042               	movf	___awmod@sign^0,w,c
  3711   001F38  B4D8               	btfsc	status,2,c
  3712   001F3A  EFA1  F00F         	goto	u6771
  3713   001F3E  EFA3  F00F         	goto	u6770
  3714   001F42                     u6771:
  3715   001F42  EFA7  F00F         	goto	l7629
  3716   001F46                     u6770:
  3717   001F46  6C3D               	negf	___awmod@dividend^0,c
  3718   001F48  1E3E               	comf	(___awmod@dividend+1)^0,f,c
  3719   001F4A  B0D8               	btfsc	status,0,c
  3720   001F4C  2A3E               	incf	(___awmod@dividend+1)^0,f,c
  3721   001F4E                     l7629:
  3722   001F4E  C03D  F03D         	movff	___awmod@dividend,?___awmod
  3723   001F52  C03E  F03E         	movff	___awmod@dividend+1,?___awmod+1
  3724   001F56  0012               	return		;funcret
  3725   001F58                     __end_of___awmod:
  3726                           	callstack 0
  3727                           
  3728 ;; *************** function ___awdiv *****************
  3729 ;; Defined at:
  3730 ;;		line 7 in file "C:\Program Files\Microchip\xc8\v2.45\pic\sources\c99\common\awdiv.c"
  3731 ;; Parameters:    Size  Location     Type
  3732 ;;  dividend        2    1[COMRAM] int 
  3733 ;;  divisor         2    3[COMRAM] int 
  3734 ;; Auto vars:     Size  Location     Type
  3735 ;;  quotient        2    7[COMRAM] int 
  3736 ;;  sign            1    6[COMRAM] unsigned char 
  3737 ;;  counter         1    5[COMRAM] unsigned char 
  3738 ;; Return value:  Size  Location     Type
  3739 ;;                  2    1[COMRAM] int 
  3740 ;; Registers used:
  3741 ;;		wreg, status,2, status,0
  3742 ;; Tracked objects:
  3743 ;;		On entry : 0/0
  3744 ;;		On exit  : 0/0
  3745 ;;		Unchanged: 0/0
  3746 ;; Data sizes:     COMRAM   BANK0   BANK1   BANK2   BANK3   BANK4   BANK5   BANK6   BANK7   BANK8   BANK9  BANK10  BANK1
      +1  BANK12  BANK13  BANK14  BANK15
  3747 ;;      Params:         4       0       0       0       0       0       0       0       0       0       0       0       
      +0       0       0       0       0
  3748 ;;      Locals:         4       0       0       0       0       0       0       0       0       0       0       0       
      +0       0       0       0       0
  3749 ;;      Temps:          0       0       0       0       0       0       0       0       0       0       0       0       
      +0       0       0       0       0
  3750 ;;      Totals:         8       0       0       0       0       0       0       0       0       0       0       0       
      +0       0       0       0       0
  3751 ;;Total ram usage:        8 bytes
  3752 ;; Hardware stack levels used: 1
  3753 ;; Hardware stack levels required when called: 2
  3754 ;; This function calls:
  3755 ;;		Nothing
  3756 ;; This function is called by:
  3757 ;;		_vfpfcnvrt
  3758 ;; This function uses a non-reentrant model
  3759 ;;
  3760                           
  3761                           	psect	text20
  3762   001DE4                     __ptext20:
  3763                           	callstack 0
  3764   001DE4                     ___awdiv:
  3765                           	callstack 24
  3766   001DE4  0E00               	movlw	0
  3767   001DE6  6E42               	movwf	___awdiv@sign^0,c
  3768   001DE8  BE40               	btfsc	(___awdiv@divisor+1)^0,7,c
  3769   001DEA  EFFB  F00E         	goto	u6660
  3770   001DEE  EFF9  F00E         	goto	u6661
  3771   001DF2                     u6661:
  3772   001DF2  EF01  F00F         	goto	l7561
  3773   001DF6                     u6660:
  3774   001DF6  6C3F               	negf	___awdiv@divisor^0,c
  3775   001DF8  1E40               	comf	(___awdiv@divisor+1)^0,f,c
  3776   001DFA  B0D8               	btfsc	status,0,c
  3777   001DFC  2A40               	incf	(___awdiv@divisor+1)^0,f,c
  3778   001DFE  0E01               	movlw	1
  3779   001E00  6E42               	movwf	___awdiv@sign^0,c
  3780   001E02                     l7561:
  3781   001E02  BE3E               	btfsc	(___awdiv@dividend+1)^0,7,c
  3782   001E04  EF08  F00F         	goto	u6670
  3783   001E08  EF06  F00F         	goto	u6671
  3784   001E0C                     u6671:
  3785   001E0C  EF0E  F00F         	goto	l7567
  3786   001E10                     u6670:
  3787   001E10  6C3D               	negf	___awdiv@dividend^0,c
  3788   001E12  1E3E               	comf	(___awdiv@dividend+1)^0,f,c
  3789   001E14  B0D8               	btfsc	status,0,c
  3790   001E16  2A3E               	incf	(___awdiv@dividend+1)^0,f,c
  3791   001E18  0E01               	movlw	1
  3792   001E1A  1A42               	xorwf	___awdiv@sign^0,f,c
  3793   001E1C                     l7567:
  3794   001E1C  0E00               	movlw	0
  3795   001E1E  6E44               	movwf	(___awdiv@quotient+1)^0,c
  3796   001E20  0E00               	movlw	0
  3797   001E22  6E43               	movwf	___awdiv@quotient^0,c
  3798   001E24  503F               	movf	___awdiv@divisor^0,w,c
  3799   001E26  1040               	iorwf	(___awdiv@divisor+1)^0,w,c
  3800   001E28  B4D8               	btfsc	status,2,c
  3801   001E2A  EF19  F00F         	goto	u6681
  3802   001E2E  EF1B  F00F         	goto	u6680
  3803   001E32                     u6681:
  3804   001E32  EF43  F00F         	goto	l7589
  3805   001E36                     u6680:
  3806   001E36  0E01               	movlw	1
  3807   001E38  6E41               	movwf	___awdiv@counter^0,c
  3808   001E3A  EF23  F00F         	goto	l7575
  3809   001E3E                     l7573:
  3810   001E3E  90D8               	bcf	status,0,c
  3811   001E40  363F               	rlcf	___awdiv@divisor^0,f,c
  3812   001E42  3640               	rlcf	(___awdiv@divisor+1)^0,f,c
  3813   001E44  2A41               	incf	___awdiv@counter^0,f,c
  3814   001E46                     l7575:
  3815   001E46  AE40               	btfss	(___awdiv@divisor+1)^0,7,c
  3816   001E48  EF28  F00F         	goto	u6691
  3817   001E4C  EF2A  F00F         	goto	u6690
  3818   001E50                     u6691:
  3819   001E50  EF1F  F00F         	goto	l7573
  3820   001E54                     u6690:
  3821   001E54                     l7577:
  3822   001E54  90D8               	bcf	status,0,c
  3823   001E56  3643               	rlcf	___awdiv@quotient^0,f,c
  3824   001E58  3644               	rlcf	(___awdiv@quotient+1)^0,f,c
  3825   001E5A  503F               	movf	___awdiv@divisor^0,w,c
  3826   001E5C  5C3D               	subwf	___awdiv@dividend^0,w,c
  3827   001E5E  5040               	movf	(___awdiv@divisor+1)^0,w,c
  3828   001E60  583E               	subwfb	(___awdiv@dividend+1)^0,w,c
  3829   001E62  A0D8               	btfss	status,0,c
  3830   001E64  EF36  F00F         	goto	u6701
  3831   001E68  EF38  F00F         	goto	u6700
  3832   001E6C                     u6701:
  3833   001E6C  EF3D  F00F         	goto	l7585
  3834   001E70                     u6700:
  3835   001E70  503F               	movf	___awdiv@divisor^0,w,c
  3836   001E72  5E3D               	subwf	___awdiv@dividend^0,f,c
  3837   001E74  5040               	movf	(___awdiv@divisor+1)^0,w,c
  3838   001E76  5A3E               	subwfb	(___awdiv@dividend+1)^0,f,c
  3839   001E78  8043               	bsf	___awdiv@quotient^0,0,c
  3840   001E7A                     l7585:
  3841   001E7A  90D8               	bcf	status,0,c
  3842   001E7C  3240               	rrcf	(___awdiv@divisor+1)^0,f,c
  3843   001E7E  323F               	rrcf	___awdiv@divisor^0,f,c
  3844   001E80  2E41               	decfsz	___awdiv@counter^0,f,c
  3845   001E82  EF2A  F00F         	goto	l7577
  3846   001E86                     l7589:
  3847   001E86  5042               	movf	___awdiv@sign^0,w,c
  3848   001E88  B4D8               	btfsc	status,2,c
  3849   001E8A  EF49  F00F         	goto	u6711
  3850   001E8E  EF4B  F00F         	goto	u6710
  3851   001E92                     u6711:
  3852   001E92  EF4F  F00F         	goto	l7593
  3853   001E96                     u6710:
  3854   001E96  6C43               	negf	___awdiv@quotient^0,c
  3855   001E98  1E44               	comf	(___awdiv@quotient+1)^0,f,c
  3856   001E9A  B0D8               	btfsc	status,0,c
  3857   001E9C  2A44               	incf	(___awdiv@quotient+1)^0,f,c
  3858   001E9E                     l7593:
  3859   001E9E  C043  F03D         	movff	___awdiv@quotient,?___awdiv
  3860   001EA2  C044  F03E         	movff	___awdiv@quotient+1,?___awdiv+1
  3861   001EA6  0012               	return		;funcret
  3862   001EA8                     __end_of___awdiv:
  3863                           	callstack 0
  3864                           
  3865 ;; *************** function _memset *****************
  3866 ;; Defined at:
  3867 ;;		line 3 in file "C:\Program Files\Microchip\xc8\v2.45\pic\sources\c99\common\memset.c"
  3868 ;; Parameters:    Size  Location     Type
  3869 ;;  dest            1    1[COMRAM] PTR void 
  3870 ;;		 -> str(5), 
  3871 ;;  c               2    2[COMRAM] int 
  3872 ;;  n               2    4[COMRAM] unsigned int 
  3873 ;; Auto vars:     Size  Location     Type
  3874 ;;  p               1    6[COMRAM] PTR unsigned char 
  3875 ;;		 -> str(5), 
  3876 ;; Return value:  Size  Location     Type
  3877 ;;                  1    wreg      PTR void 
  3878 ;; Registers used:
  3879 ;;		wreg, fsr2l, fsr2h, status,2, status,0
  3880 ;; Tracked objects:
  3881 ;;		On entry : 0/0
  3882 ;;		On exit  : 0/0
  3883 ;;		Unchanged: 0/0
  3884 ;; Data sizes:     COMRAM   BANK0   BANK1   BANK2   BANK3   BANK4   BANK5   BANK6   BANK7   BANK8   BANK9  BANK10  BANK1
      +1  BANK12  BANK13  BANK14  BANK15
  3885 ;;      Params:         5       0       0       0       0       0       0       0       0       0       0       0       
      +0       0       0       0       0
  3886 ;;      Locals:         1       0       0       0       0       0       0       0       0       0       0       0       
      +0       0       0       0       0
  3887 ;;      Temps:          0       0       0       0       0       0       0       0       0       0       0       0       
      +0       0       0       0       0
  3888 ;;      Totals:         6       0       0       0       0       0       0       0       0       0       0       0       
      +0       0       0       0       0
  3889 ;;Total ram usage:        6 bytes
  3890 ;; Hardware stack levels used: 1
  3891 ;; Hardware stack levels required when called: 2
  3892 ;; This function calls:
  3893 ;;		Nothing
  3894 ;; This function is called by:
  3895 ;;		_convert_uint8_to_string
  3896 ;;		_convert_uint16_to_string
  3897 ;;		_convert_uint32_to_string
  3898 ;; This function uses a non-reentrant model
  3899 ;;
  3900                           
  3901                           	psect	text21
  3902   0027A4                     __ptext21:
  3903                           	callstack 0
  3904   0027A4                     _memset:
  3905                           	callstack 27
  3906   0027A4  C03D  F042         	movff	memset@dest,memset@p
  3907   0027A8  EFDC  F013         	goto	l7907
  3908   0027AC                     l7903:
  3909   0027AC  5042               	movf	memset@p^0,w,c
  3910   0027AE  6ED9               	movwf	fsr2l,c
  3911   0027B0  6ADA               	clrf	fsr2h,c
  3912   0027B2  C03E  FFDF         	movff	memset@c,indf2
  3913   0027B6  2A42               	incf	memset@p^0,f,c
  3914   0027B8                     l7907:
  3915   0027B8  0640               	decf	memset@n^0,f,c
  3916   0027BA  A0D8               	btfss	status,0,c
  3917   0027BC  0641               	decf	(memset@n+1)^0,f,c
  3918   0027BE  2840               	incf	memset@n^0,w,c
  3919   0027C0  E106               	bnz	u7151
  3920   0027C2  2841               	incf	(memset@n+1)^0,w,c
  3921   0027C4  A4D8               	btfss	status,2,c
  3922   0027C6  EFE7  F013         	goto	u7151
  3923   0027CA  EFE9  F013         	goto	u7150
  3924   0027CE                     u7151:
  3925   0027CE  EFD6  F013         	goto	l7903
  3926   0027D2                     u7150:
  3927   0027D2  0012               	return		;funcret
  3928   0027D4                     __end_of_memset:
  3929                           	callstack 0
  3930                           
  3931 ;; *************** function _app_initialize *****************
  3932 ;; Defined at:
  3933 ;;		line 189 in file "application.c"
  3934 ;; Parameters:    Size  Location     Type
  3935 ;;		None
  3936 ;; Auto vars:     Size  Location     Type
  3937 ;;  ret             1    0        unsigned char 
  3938 ;; Return value:  Size  Location     Type
  3939 ;;                  1    wreg      void 
  3940 ;; Registers used:
  3941 ;;		wreg, fsr2l, fsr2h, status,2, status,0, prodl, prodh, cstack
  3942 ;; Tracked objects:
  3943 ;;		On entry : 0/0
  3944 ;;		On exit  : 0/0
  3945 ;;		Unchanged: 0/0
  3946 ;; Data sizes:     COMRAM   BANK0   BANK1   BANK2   BANK3   BANK4   BANK5   BANK6   BANK7   BANK8   BANK9  BANK10  BANK1
      +1  BANK12  BANK13  BANK14  BANK15
  3947 ;;      Params:         0       0       0       0       0       0       0       0       0       0       0       0       
      +0       0       0       0       0
  3948 ;;      Locals:         0       0       0       0       0       0       0       0       0       0       0       0       
      +0       0       0       0       0
  3949 ;;      Temps:          0       0       0       0       0       0       0       0       0       0       0       0       
      +0       0       0       0       0
  3950 ;;      Totals:         0       0       0       0       0       0       0       0       0       0       0       0       
      +0       0       0       0       0
  3951 ;;Total ram usage:        0 bytes
  3952 ;; Hardware stack levels used: 1
  3953 ;; Hardware stack levels required when called: 6
  3954 ;; This function calls:
  3955 ;;		_keypad_initialize
  3956 ;;		_lcd_4bit_initialize
  3957 ;;		_led_intalize
  3958 ;;		_motor_initialize
  3959 ;; This function is called by:
  3960 ;;		_main
  3961 ;; This function uses a non-reentrant model
  3962 ;;
  3963                           
  3964                           	psect	text22
  3965   002740                     __ptext22:
  3966                           	callstack 0
  3967   002740                     _app_initialize:
  3968                           	callstack 24
  3969   002740  0EE5               	movlw	low _keypad_1
  3970   002742  6E48               	movwf	keypad_initialize@keypad^0,c
  3971   002744  EC97  F011         	call	_keypad_initialize	;wreg free
  3972   002748  0EED               	movlw	low _lcd_2
  3973   00274A  6E4B               	movwf	lcd_4bit_initialize@lcd^0,c
  3974   00274C  EC13  F00E         	call	_lcd_4bit_initialize	;wreg free
  3975   002750  0E78               	movlw	low _motor_1
  3976   002752  6E48               	movwf	motor_initialize@motor^0,c
  3977   002754  ECEA  F013         	call	_motor_initialize	;wreg free
  3978   002758  0E76               	movlw	low _motor_2
  3979   00275A  6E48               	movwf	motor_initialize@motor^0,c
  3980   00275C  ECEA  F013         	call	_motor_initialize	;wreg free
  3981   002760  0E3B               	movlw	low _red
  3982   002762  6E48               	movwf	led_intalize@led^0,c
  3983   002764  EC27  F011         	call	_led_intalize	;wreg free
  3984   002768  0E7A               	movlw	low _green
  3985   00276A  6E48               	movwf	led_intalize@led^0,c
  3986   00276C  EC27  F011         	call	_led_intalize	;wreg free
  3987   002770  0012               	return		;funcret
  3988   002772                     __end_of_app_initialize:
  3989                           	callstack 0
  3990                           
  3991 ;; *************** function _motor_initialize *****************
  3992 ;; Defined at:
  3993 ;;		line 12 in file "ECU_Layer/DC_MOTOR/ecu_dc_motor.c"
  3994 ;; Parameters:    Size  Location     Type
  3995 ;;  motor           1   12[COMRAM] PTR const struct .
  3996 ;;		 -> motor_2(2), motor_1(2), 
  3997 ;; Auto vars:     Size  Location     Type
  3998 ;;  ret             1   13[COMRAM] unsigned char 
  3999 ;; Return value:  Size  Location     Type
  4000 ;;                  1    wreg      unsigned char 
  4001 ;; Registers used:
  4002 ;;		wreg, fsr2l, fsr2h, status,2, status,0, prodl, prodh, cstack
  4003 ;; Tracked objects:
  4004 ;;		On entry : 0/0
  4005 ;;		On exit  : 0/0
  4006 ;;		Unchanged: 0/0
  4007 ;; Data sizes:     COMRAM   BANK0   BANK1   BANK2   BANK3   BANK4   BANK5   BANK6   BANK7   BANK8   BANK9  BANK10  BANK1
      +1  BANK12  BANK13  BANK14  BANK15
  4008 ;;      Params:         1       0       0       0       0       0       0       0       0       0       0       0       
      +0       0       0       0       0
  4009 ;;      Locals:         1       0       0       0       0       0       0       0       0       0       0       0       
      +0       0       0       0       0
  4010 ;;      Temps:          0       0       0       0       0       0       0       0       0       0       0       0       
      +0       0       0       0       0
  4011 ;;      Totals:         2       0       0       0       0       0       0       0       0       0       0       0       
      +0       0       0       0       0
  4012 ;;Total ram usage:        2 bytes
  4013 ;; Hardware stack levels used: 1
  4014 ;; Hardware stack levels required when called: 4
  4015 ;; This function calls:
  4016 ;;		_gpio_pin_intialize
  4017 ;; This function is called by:
  4018 ;;		_app_initialize
  4019 ;; This function uses a non-reentrant model
  4020 ;;
  4021                           
  4022                           	psect	text23
  4023   0027D4                     __ptext23:
  4024                           	callstack 0
  4025   0027D4                     _motor_initialize:
  4026                           	callstack 25
  4027   0027D4                     
  4028                           ;ECU_Layer/DC_MOTOR/ecu_dc_motor.c: 14:     if(((void*)0)== motor)
  4029   0027D4  5048               	movf	motor_initialize@motor^0,w,c
  4030   0027D6  A4D8               	btfss	status,2,c
  4031   0027D8  EFF0  F013         	goto	u7161
  4032   0027DC  EFF2  F013         	goto	u7160
  4033   0027E0                     u7161:
  4034   0027E0  EFF6  F013         	goto	l7925
  4035   0027E4                     u7160:
  4036   0027E4                     
  4037                           ;ECU_Layer/DC_MOTOR/ecu_dc_motor.c: 15:     {;ECU_Layer/DC_MOTOR/ecu_dc_motor.c: 16:    
      +                           ret = (Std_ReturnType)0x00 ;
  4038   0027E4  0E00               	movlw	0
  4039   0027E6  6E49               	movwf	motor_initialize@ret^0,c
  4040                           
  4041                           ;ECU_Layer/DC_MOTOR/ecu_dc_motor.c: 17:     }else
  4042   0027E8  EF00  F014         	goto	l7929
  4043   0027EC                     l7925:
  4044                           
  4045                           ;ECU_Layer/DC_MOTOR/ecu_dc_motor.c: 18:     {;ECU_Layer/DC_MOTOR/ecu_dc_motor.c: 20:    
      +                                 gpio_pin_intialize(&(motor->motors[0]));
  4046   0027EC  C048  F045         	movff	motor_initialize@motor,gpio_pin_intialize@_pin_t
  4047   0027F0  ECFD  F011         	call	_gpio_pin_intialize	;wreg free
  4048                           
  4049                           ;ECU_Layer/DC_MOTOR/ecu_dc_motor.c: 21:           gpio_pin_intialize(&(motor->motors[1])
      +                          );
  4050   0027F4  2848               	incf	motor_initialize@motor^0,w,c
  4051   0027F6  6E45               	movwf	gpio_pin_intialize@_pin_t^0,c
  4052   0027F8  ECFD  F011         	call	_gpio_pin_intialize	;wreg free
  4053   0027FC                     
  4054                           ;ECU_Layer/DC_MOTOR/ecu_dc_motor.c: 22:      ret = (Std_ReturnType)0x01 ;
  4055   0027FC  0E01               	movlw	1
  4056   0027FE  6E49               	movwf	motor_initialize@ret^0,c
  4057   002800                     l7929:
  4058                           
  4059                           ;ECU_Layer/DC_MOTOR/ecu_dc_motor.c: 24:     return ret;
  4060   002800  5049               	movf	motor_initialize@ret^0,w,c
  4061   002802  0012               	return		;funcret
  4062   002804                     __end_of_motor_initialize:
  4063                           	callstack 0
  4064                           
  4065 ;; *************** function _led_intalize *****************
  4066 ;; Defined at:
  4067 ;;		line 8 in file "ECU_Layer/LED/ecu_led.c"
  4068 ;; Parameters:    Size  Location     Type
  4069 ;;  led             1   12[COMRAM] PTR const struct .
  4070 ;;		 -> red(1), green(1), 
  4071 ;; Auto vars:     Size  Location     Type
  4072 ;;  obj             1   15[COMRAM] struct .
  4073 ;;  ret             1   14[COMRAM] unsigned char 
  4074 ;; Return value:  Size  Location     Type
  4075 ;;                  1    wreg      unsigned char 
  4076 ;; Registers used:
  4077 ;;		wreg, fsr2l, fsr2h, status,2, status,0, prodl, prodh, cstack
  4078 ;; Tracked objects:
  4079 ;;		On entry : 0/0
  4080 ;;		On exit  : 0/0
  4081 ;;		Unchanged: 0/0
  4082 ;; Data sizes:     COMRAM   BANK0   BANK1   BANK2   BANK3   BANK4   BANK5   BANK6   BANK7   BANK8   BANK9  BANK10  BANK1
      +1  BANK12  BANK13  BANK14  BANK15
  4083 ;;      Params:         1       0       0       0       0       0       0       0       0       0       0       0       
      +0       0       0       0       0
  4084 ;;      Locals:         2       0       0       0       0       0       0       0       0       0       0       0       
      +0       0       0       0       0
  4085 ;;      Temps:          1       0       0       0       0       0       0       0       0       0       0       0       
      +0       0       0       0       0
  4086 ;;      Totals:         4       0       0       0       0       0       0       0       0       0       0       0       
      +0       0       0       0       0
  4087 ;;Total ram usage:        4 bytes
  4088 ;; Hardware stack levels used: 1
  4089 ;; Hardware stack levels required when called: 4
  4090 ;; This function calls:
  4091 ;;		_gpio_pin_intialize
  4092 ;; This function is called by:
  4093 ;;		_app_initialize
  4094 ;; This function uses a non-reentrant model
  4095 ;;
  4096                           
  4097                           	psect	text24
  4098   00224E                     __ptext24:
  4099                           	callstack 0
  4100   00224E                     _led_intalize:
  4101                           	callstack 25
  4102   00224E                     
  4103                           ;ECU_Layer/LED/ecu_led.c: 8: Std_ReturnType led_intalize(const led_t *led);ECU_Layer/LED
      +                          /ecu_led.c: 9: {;ECU_Layer/LED/ecu_led.c: 10: Std_ReturnType ret = (Std_ReturnType)0x01;
  4104   00224E  0E01               	movlw	1
  4105   002250  6E4A               	movwf	led_intalize@ret^0,c
  4106                           
  4107                           ;ECU_Layer/LED/ecu_led.c: 11: if(((void*)0)==led){
  4108   002252  5048               	movf	led_intalize@led^0,w,c
  4109   002254  A4D8               	btfss	status,2,c
  4110   002256  EF2F  F011         	goto	u7261
  4111   00225A  EF31  F011         	goto	u7260
  4112   00225E                     u7261:
  4113   00225E  EF35  F011         	goto	l280
  4114   002262                     u7260:
  4115   002262                     
  4116                           ;ECU_Layer/LED/ecu_led.c: 12:     ret = (Std_ReturnType)0x00;
  4117   002262  0E00               	movlw	0
  4118   002264  6E4A               	movwf	led_intalize@ret^0,c
  4119                           
  4120                           ;ECU_Layer/LED/ecu_led.c: 13: }
  4121   002266  EF5E  F011         	goto	l8029
  4122   00226A                     l280:
  4123                           
  4124                           ;ECU_Layer/LED/ecu_led.c: 15:     pin_config_t obj ={ .port = led->port , .pin = led->pi
      +                          n , .logic =led->statu ,.direction = OUTPUT } ;
  4125   00226A  C039  F04B         	movff	led_intalize@F3054,led_intalize@obj
  4126   00226E  5048               	movf	led_intalize@led^0,w,c
  4127   002270  6ED9               	movwf	fsr2l,c
  4128   002272  6ADA               	clrf	fsr2h,c
  4129   002274  50DF               	movf	223,w,c
  4130   002276  0B0F               	andlw	15
  4131   002278  6E49               	movwf	??_led_intalize^0,c
  4132   00227A  504B               	movf	led_intalize@obj^0,w,c
  4133   00227C  1849               	xorwf	??_led_intalize^0,w,c
  4134   00227E  0BF8               	andlw	-8
  4135   002280  1849               	xorwf	??_led_intalize^0,w,c
  4136   002282  6E4B               	movwf	led_intalize@obj^0,c
  4137   002284  5048               	movf	led_intalize@led^0,w,c
  4138   002286  6ED9               	movwf	fsr2l,c
  4139   002288  6ADA               	clrf	fsr2h,c
  4140   00228A  38DF               	swapf	223,w,c
  4141   00228C  32E8               	rrcf	wreg,f,c
  4142   00228E  0B07               	andlw	7
  4143   002290  6E49               	movwf	??_led_intalize^0,c
  4144   002292  4649               	rlncf	??_led_intalize^0,f,c
  4145   002294  4649               	rlncf	??_led_intalize^0,f,c
  4146   002296  4649               	rlncf	??_led_intalize^0,f,c
  4147   002298  504B               	movf	led_intalize@obj^0,w,c
  4148   00229A  1849               	xorwf	??_led_intalize^0,w,c
  4149   00229C  0BC7               	andlw	-57
  4150   00229E  1849               	xorwf	??_led_intalize^0,w,c
  4151   0022A0  6E4B               	movwf	led_intalize@obj^0,c
  4152   0022A2  9C4B               	bcf	led_intalize@obj^0,6,c
  4153   0022A4  5048               	movf	led_intalize@led^0,w,c
  4154   0022A6  6ED9               	movwf	fsr2l,c
  4155   0022A8  6ADA               	clrf	fsr2h,c
  4156   0022AA  A8DF               	btfss	indf2,4,c
  4157   0022AC  D002               	bra	u7275
  4158   0022AE  8E4B               	bsf	led_intalize@obj^0,7,c
  4159   0022B0  D001               	bra	u7277
  4160   0022B2                     u7275:
  4161   0022B2  9E4B               	bcf	led_intalize@obj^0,7,c
  4162   0022B4                     u7277:
  4163   0022B4                     
  4164                           ;ECU_Layer/LED/ecu_led.c: 17:     gpio_pin_intialize(&obj);
  4165   0022B4  0E4B               	movlw	low led_intalize@obj
  4166   0022B6  6E45               	movwf	gpio_pin_intialize@_pin_t^0,c
  4167   0022B8  ECFD  F011         	call	_gpio_pin_intialize	;wreg free
  4168   0022BC                     l8029:
  4169                           
  4170                           ;ECU_Layer/LED/ecu_led.c: 20: return ret;
  4171   0022BC  504A               	movf	led_intalize@ret^0,w,c
  4172   0022BE  0012               	return		;funcret
  4173   0022C0                     __end_of_led_intalize:
  4174                           	callstack 0
  4175                           
  4176 ;; *************** function _lcd_4bit_initialize *****************
  4177 ;; Defined at:
  4178 ;;		line 14 in file "ECU_Layer/CHR_LCD/ecu_chr_lcd.c"
  4179 ;; Parameters:    Size  Location     Type
  4180 ;;  lcd             1   15[COMRAM] PTR const struct .
  4181 ;;		 -> lcd_2(6), 
  4182 ;; Auto vars:     Size  Location     Type
  4183 ;;  ret             1   18[COMRAM] unsigned char 
  4184 ;;  l_counter       1   17[COMRAM] unsigned char 
  4185 ;; Return value:  Size  Location     Type
  4186 ;;                  1    wreg      unsigned char 
  4187 ;; Registers used:
  4188 ;;		wreg, fsr2l, fsr2h, status,2, status,0, prodl, prodh, cstack
  4189 ;; Tracked objects:
  4190 ;;		On entry : 0/0
  4191 ;;		On exit  : 0/0
  4192 ;;		Unchanged: 0/0
  4193 ;; Data sizes:     COMRAM   BANK0   BANK1   BANK2   BANK3   BANK4   BANK5   BANK6   BANK7   BANK8   BANK9  BANK10  BANK1
      +1  BANK12  BANK13  BANK14  BANK15
  4194 ;;      Params:         1       0       0       0       0       0       0       0       0       0       0       0       
      +0       0       0       0       0
  4195 ;;      Locals:         2       0       0       0       0       0       0       0       0       0       0       0       
      +0       0       0       0       0
  4196 ;;      Temps:          1       0       0       0       0       0       0       0       0       0       0       0       
      +0       0       0       0       0
  4197 ;;      Totals:         4       0       0       0       0       0       0       0       0       0       0       0       
      +0       0       0       0       0
  4198 ;;Total ram usage:        4 bytes
  4199 ;; Hardware stack levels used: 1
  4200 ;; Hardware stack levels required when called: 5
  4201 ;; This function calls:
  4202 ;;		_gpio_pin_intialize
  4203 ;;		_lcd_4bit_send_command
  4204 ;; This function is called by:
  4205 ;;		_app_initialize
  4206 ;; This function uses a non-reentrant model
  4207 ;;
  4208                           
  4209                           	psect	text25
  4210   001C26                     __ptext25:
  4211                           	callstack 0
  4212   001C26                     _lcd_4bit_initialize:
  4213                           	callstack 24
  4214   001C26                     
  4215                           ;ECU_Layer/CHR_LCD/ecu_chr_lcd.c: 16:     uint8 l_counter =0 ;
  4216   001C26  0E00               	movlw	0
  4217   001C28  6E4D               	movwf	lcd_4bit_initialize@l_counter^0,c
  4218                           
  4219                           ;ECU_Layer/CHR_LCD/ecu_chr_lcd.c: 17:     if((((void*)0)==lcd)){
  4220   001C2A  504B               	movf	lcd_4bit_initialize@lcd^0,w,c
  4221   001C2C  A4D8               	btfss	status,2,c
  4222   001C2E  EF1B  F00E         	goto	u7081
  4223   001C32  EF1D  F00E         	goto	u7080
  4224   001C36                     u7081:
  4225   001C36  EF21  F00E         	goto	l7807
  4226   001C3A                     u7080:
  4227   001C3A                     
  4228                           ;ECU_Layer/CHR_LCD/ecu_chr_lcd.c: 18:         ret =(Std_ReturnType)0x00 ;
  4229   001C3A  0E00               	movlw	0
  4230   001C3C  6E4E               	movwf	lcd_4bit_initialize@ret^0,c
  4231                           
  4232                           ;ECU_Layer/CHR_LCD/ecu_chr_lcd.c: 19:     }else {
  4233   001C3E  EF84  F00E         	goto	l7843
  4234   001C42                     l7807:
  4235                           
  4236                           ;ECU_Layer/CHR_LCD/ecu_chr_lcd.c: 20:         ret= gpio_pin_intialize(&(lcd->pin_Rs));
  4237   001C42  C04B  F045         	movff	lcd_4bit_initialize@lcd,gpio_pin_intialize@_pin_t
  4238   001C46  ECFD  F011         	call	_gpio_pin_intialize	;wreg free
  4239   001C4A  6E4E               	movwf	lcd_4bit_initialize@ret^0,c
  4240                           
  4241                           ;ECU_Layer/CHR_LCD/ecu_chr_lcd.c: 21:             ret= gpio_pin_intialize(&(lcd->pin_en)
      +                          );
  4242   001C4C  284B               	incf	lcd_4bit_initialize@lcd^0,w,c
  4243   001C4E  6E45               	movwf	gpio_pin_intialize@_pin_t^0,c
  4244   001C50  ECFD  F011         	call	_gpio_pin_intialize	;wreg free
  4245   001C54  6E4E               	movwf	lcd_4bit_initialize@ret^0,c
  4246   001C56                     
  4247                           ;ECU_Layer/CHR_LCD/ecu_chr_lcd.c: 22:             for(l_counter = 0 ; l_counter < 4 ; l_
      +                          counter++){
  4248   001C56  0E00               	movlw	0
  4249   001C58  6E4D               	movwf	lcd_4bit_initialize@l_counter^0,c
  4250   001C5A                     l7815:
  4251   001C5A  504B               	movf	lcd_4bit_initialize@lcd^0,w,c
  4252   001C5C  244D               	addwf	lcd_4bit_initialize@l_counter^0,w,c
  4253   001C5E  0F02               	addlw	2
  4254   001C60  6E45               	movwf	gpio_pin_intialize@_pin_t^0,c
  4255   001C62  ECFD  F011         	call	_gpio_pin_intialize	;wreg free
  4256   001C66                     
  4257                           ;ECU_Layer/CHR_LCD/ecu_chr_lcd.c: 24:             }
  4258   001C66  2A4D               	incf	lcd_4bit_initialize@l_counter^0,f,c
  4259   001C68  0E03               	movlw	3
  4260   001C6A  644D               	cpfsgt	lcd_4bit_initialize@l_counter^0,c
  4261   001C6C  EF3A  F00E         	goto	u7091
  4262   001C70  EF3C  F00E         	goto	u7090
  4263   001C74                     u7091:
  4264   001C74  EF2D  F00E         	goto	l7815
  4265   001C78                     u7090:
  4266   001C78                     
  4267                           ;ECU_Layer/CHR_LCD/ecu_chr_lcd.c: 25:             _delay((unsigned long)((20)*(8000000UL
      +                          /4000.0)));
  4268   001C78  0E34               	movlw	52
  4269   001C7A  6E4C               	movwf	??_lcd_4bit_initialize^0,c
  4270   001C7C  0EF2               	movlw	242
  4271   001C7E                     u8187:
  4272   001C7E  2EE8               	decfsz	wreg,f,c
  4273   001C80  D7FE               	bra	u8187
  4274   001C82  2E4C               	decfsz	??_lcd_4bit_initialize^0,f,c
  4275   001C84  D7FC               	bra	u8187
  4276   001C86  C04B  F048         	movff	lcd_4bit_initialize@lcd,lcd_4bit_send_command@lcd
  4277   001C8A  0E38               	movlw	56
  4278   001C8C  6E49               	movwf	lcd_4bit_send_command@command^0,c
  4279   001C8E  EC5A  F012         	call	_lcd_4bit_send_command	;wreg free
  4280   001C92                     
  4281                           ;ECU_Layer/CHR_LCD/ecu_chr_lcd.c: 27:              _delay((unsigned long)((5)*(8000000UL
      +                          /4000.0)));
  4282   001C92  0E0D               	movlw	13
  4283   001C94  6E4C               	movwf	??_lcd_4bit_initialize^0,c
  4284   001C96  0EFC               	movlw	252
  4285   001C98                     u8197:
  4286   001C98  2EE8               	decfsz	wreg,f,c
  4287   001C9A  D7FE               	bra	u8197
  4288   001C9C  2E4C               	decfsz	??_lcd_4bit_initialize^0,f,c
  4289   001C9E  D7FC               	bra	u8197
  4290   001CA0  C04B  F048         	movff	lcd_4bit_initialize@lcd,lcd_4bit_send_command@lcd
  4291   001CA4  0E38               	movlw	56
  4292   001CA6  6E49               	movwf	lcd_4bit_send_command@command^0,c
  4293   001CA8  EC5A  F012         	call	_lcd_4bit_send_command	;wreg free
  4294   001CAC                     
  4295                           ;ECU_Layer/CHR_LCD/ecu_chr_lcd.c: 29:             _delay((unsigned long)((150)*(8000000U
      +                          L/4000000.0)));
  4296   001CAC  0E64               	movlw	100
  4297   001CAE                     u8207:
  4298   001CAE  2EE8               	decfsz	wreg,f,c
  4299   001CB0  D7FE               	bra	u8207
  4300   001CB2  C04B  F048         	movff	lcd_4bit_initialize@lcd,lcd_4bit_send_command@lcd
  4301   001CB6  0E38               	movlw	56
  4302   001CB8  6E49               	movwf	lcd_4bit_send_command@command^0,c
  4303   001CBA  EC5A  F012         	call	_lcd_4bit_send_command	;wreg free
  4304   001CBE  C04B  F048         	movff	lcd_4bit_initialize@lcd,lcd_4bit_send_command@lcd
  4305   001CC2  0E01               	movlw	1
  4306   001CC4  6E49               	movwf	lcd_4bit_send_command@command^0,c
  4307   001CC6  EC5A  F012         	call	_lcd_4bit_send_command	;wreg free
  4308   001CCA  C04B  F048         	movff	lcd_4bit_initialize@lcd,lcd_4bit_send_command@lcd
  4309   001CCE  0E02               	movlw	2
  4310   001CD0  6E49               	movwf	lcd_4bit_send_command@command^0,c
  4311   001CD2  EC5A  F012         	call	_lcd_4bit_send_command	;wreg free
  4312   001CD6  C04B  F048         	movff	lcd_4bit_initialize@lcd,lcd_4bit_send_command@lcd
  4313   001CDA  0E06               	movlw	6
  4314   001CDC  6E49               	movwf	lcd_4bit_send_command@command^0,c
  4315   001CDE  EC5A  F012         	call	_lcd_4bit_send_command	;wreg free
  4316   001CE2  C04B  F048         	movff	lcd_4bit_initialize@lcd,lcd_4bit_send_command@lcd
  4317   001CE6  0E0C               	movlw	12
  4318   001CE8  6E49               	movwf	lcd_4bit_send_command@command^0,c
  4319   001CEA  EC5A  F012         	call	_lcd_4bit_send_command	;wreg free
  4320   001CEE  C04B  F048         	movff	lcd_4bit_initialize@lcd,lcd_4bit_send_command@lcd
  4321   001CF2  0E28               	movlw	40
  4322   001CF4  6E49               	movwf	lcd_4bit_send_command@command^0,c
  4323   001CF6  EC5A  F012         	call	_lcd_4bit_send_command	;wreg free
  4324   001CFA                     
  4325                           ;ECU_Layer/CHR_LCD/ecu_chr_lcd.c: 39:              ret = lcd_4bit_send_command(lcd ,0x80
      +                          );
  4326   001CFA  C04B  F048         	movff	lcd_4bit_initialize@lcd,lcd_4bit_send_command@lcd
  4327   001CFE  0E80               	movlw	128
  4328   001D00  6E49               	movwf	lcd_4bit_send_command@command^0,c
  4329   001D02  EC5A  F012         	call	_lcd_4bit_send_command	;wreg free
  4330   001D06  6E4E               	movwf	lcd_4bit_initialize@ret^0,c
  4331   001D08                     l7843:
  4332                           
  4333                           ;ECU_Layer/CHR_LCD/ecu_chr_lcd.c: 42:     return ret ;
  4334   001D08  504E               	movf	lcd_4bit_initialize@ret^0,w,c
  4335   001D0A  0012               	return		;funcret
  4336   001D0C                     __end_of_lcd_4bit_initialize:
  4337                           	callstack 0
  4338                           
  4339 ;; *************** function _lcd_4bit_send_command *****************
  4340 ;; Defined at:
  4341 ;;		line 45 in file "ECU_Layer/CHR_LCD/ecu_chr_lcd.c"
  4342 ;; Parameters:    Size  Location     Type
  4343 ;;  lcd             1   12[COMRAM] PTR const struct .
  4344 ;;		 -> lcd_2(6), 
  4345 ;;  command         1   13[COMRAM] unsigned char 
  4346 ;; Auto vars:     Size  Location     Type
  4347 ;;  ret             1   14[COMRAM] unsigned char 
  4348 ;; Return value:  Size  Location     Type
  4349 ;;                  1    wreg      unsigned char 
  4350 ;; Registers used:
  4351 ;;		wreg, fsr2l, fsr2h, status,2, status,0, prodl, prodh, cstack
  4352 ;; Tracked objects:
  4353 ;;		On entry : 0/0
  4354 ;;		On exit  : 0/0
  4355 ;;		Unchanged: 0/0
  4356 ;; Data sizes:     COMRAM   BANK0   BANK1   BANK2   BANK3   BANK4   BANK5   BANK6   BANK7   BANK8   BANK9  BANK10  BANK1
      +1  BANK12  BANK13  BANK14  BANK15
  4357 ;;      Params:         2       0       0       0       0       0       0       0       0       0       0       0       
      +0       0       0       0       0
  4358 ;;      Locals:         1       0       0       0       0       0       0       0       0       0       0       0       
      +0       0       0       0       0
  4359 ;;      Temps:          0       0       0       0       0       0       0       0       0       0       0       0       
      +0       0       0       0       0
  4360 ;;      Totals:         3       0       0       0       0       0       0       0       0       0       0       0       
      +0       0       0       0       0
  4361 ;;Total ram usage:        3 bytes
  4362 ;; Hardware stack levels used: 1
  4363 ;; Hardware stack levels required when called: 4
  4364 ;; This function calls:
  4365 ;;		_gpio_pin_write_logic
  4366 ;;		_lcd_send_4bit_command_data
  4367 ;;		_lcd_send_4bit_enable
  4368 ;; This function is called by:
  4369 ;;		_lcd_4bit_initialize
  4370 ;;		_lcd_set_cursor_4bit
  4371 ;;		_main
  4372 ;; This function uses a non-reentrant model
  4373 ;;
  4374                           
  4375                           	psect	text26
  4376   0024B4                     __ptext26:
  4377                           	callstack 0
  4378   0024B4                     _lcd_4bit_send_command:
  4379                           	callstack 24
  4380   0024B4                     
  4381                           ;ECU_Layer/CHR_LCD/ecu_chr_lcd.c: 47:     if((((void*)0)==lcd)){
  4382   0024B4  5048               	movf	lcd_4bit_send_command@lcd^0,w,c
  4383   0024B6  A4D8               	btfss	status,2,c
  4384   0024B8  EF60  F012         	goto	u6891
  4385   0024BC  EF62  F012         	goto	u6890
  4386   0024C0                     u6891:
  4387   0024C0  EF66  F012         	goto	l7677
  4388   0024C4                     u6890:
  4389   0024C4                     
  4390                           ;ECU_Layer/CHR_LCD/ecu_chr_lcd.c: 48:         ret =(Std_ReturnType)0x00 ;
  4391   0024C4  0E00               	movlw	0
  4392   0024C6  6E4A               	movwf	lcd_4bit_send_command@ret^0,c
  4393                           
  4394                           ;ECU_Layer/CHR_LCD/ecu_chr_lcd.c: 49:     }else {
  4395   0024C8  EF86  F012         	goto	l7679
  4396   0024CC                     l7677:
  4397                           
  4398                           ;ECU_Layer/CHR_LCD/ecu_chr_lcd.c: 50:         ret = gpio_pin_write_logic(&(lcd->pin_Rs) 
      +                          , LOGIC_LOW);
  4399   0024CC  C048  F03D         	movff	lcd_4bit_send_command@lcd,gpio_pin_write_logic@_pin_t
  4400   0024D0  0E00               	movlw	0
  4401   0024D2  6E3E               	movwf	gpio_pin_write_logic@logic^0,c
  4402   0024D4  EC14  F00D         	call	_gpio_pin_write_logic	;wreg free
  4403   0024D8  6E4A               	movwf	lcd_4bit_send_command@ret^0,c
  4404                           
  4405                           ;ECU_Layer/CHR_LCD/ecu_chr_lcd.c: 51:         ret = lcd_send_4bit_command_data((lcd) , c
      +                          ommand>>4);
  4406   0024DA  C048  F045         	movff	lcd_4bit_send_command@lcd,lcd_send_4bit_command_data@lcd
  4407   0024DE  3849               	swapf	lcd_4bit_send_command@command^0,w,c
  4408   0024E0  0B0F               	andlw	15
  4409   0024E2  6E46               	movwf	lcd_send_4bit_command_data@data^0,c
  4410   0024E4  EC60  F011         	call	_lcd_send_4bit_command_data	;wreg free
  4411   0024E8  6E4A               	movwf	lcd_4bit_send_command@ret^0,c
  4412                           
  4413                           ;ECU_Layer/CHR_LCD/ecu_chr_lcd.c: 52:         ret = lcd_send_4bit_enable((lcd));
  4414   0024EA  C048  F045         	movff	lcd_4bit_send_command@lcd,lcd_send_4bit_enable@lcd
  4415   0024EE  ECF6  F012         	call	_lcd_send_4bit_enable	;wreg free
  4416   0024F2  6E4A               	movwf	lcd_4bit_send_command@ret^0,c
  4417                           
  4418                           ;ECU_Layer/CHR_LCD/ecu_chr_lcd.c: 53:          ret = lcd_send_4bit_command_data((lcd) , 
      +                          command);
  4419   0024F4  C048  F045         	movff	lcd_4bit_send_command@lcd,lcd_send_4bit_command_data@lcd
  4420   0024F8  C049  F046         	movff	lcd_4bit_send_command@command,lcd_send_4bit_command_data@data
  4421   0024FC  EC60  F011         	call	_lcd_send_4bit_command_data	;wreg free
  4422   002500  6E4A               	movwf	lcd_4bit_send_command@ret^0,c
  4423                           
  4424                           ;ECU_Layer/CHR_LCD/ecu_chr_lcd.c: 54:         ret = lcd_send_4bit_enable((lcd));
  4425   002502  C048  F045         	movff	lcd_4bit_send_command@lcd,lcd_send_4bit_enable@lcd
  4426   002506  ECF6  F012         	call	_lcd_send_4bit_enable	;wreg free
  4427   00250A  6E4A               	movwf	lcd_4bit_send_command@ret^0,c
  4428   00250C                     l7679:
  4429                           
  4430                           ;ECU_Layer/CHR_LCD/ecu_chr_lcd.c: 57:     return ret ;
  4431   00250C  504A               	movf	lcd_4bit_send_command@ret^0,w,c
  4432   00250E  0012               	return		;funcret
  4433   002510                     __end_of_lcd_4bit_send_command:
  4434                           	callstack 0
  4435                           
  4436 ;; *************** function _lcd_send_4bit_enable *****************
  4437 ;; Defined at:
  4438 ;;		line 313 in file "ECU_Layer/CHR_LCD/ecu_chr_lcd.c"
  4439 ;; Parameters:    Size  Location     Type
  4440 ;;  lcd             1    9[COMRAM] PTR const struct .
  4441 ;;		 -> lcd_2(6), 
  4442 ;; Auto vars:     Size  Location     Type
  4443 ;;  ret             1   10[COMRAM] unsigned char 
  4444 ;; Return value:  Size  Location     Type
  4445 ;;                  1    wreg      unsigned char 
  4446 ;; Registers used:
  4447 ;;		wreg, fsr2l, fsr2h, status,2, status,0, prodl, prodh, cstack
  4448 ;; Tracked objects:
  4449 ;;		On entry : 0/0
  4450 ;;		On exit  : 0/0
  4451 ;;		Unchanged: 0/0
  4452 ;; Data sizes:     COMRAM   BANK0   BANK1   BANK2   BANK3   BANK4   BANK5   BANK6   BANK7   BANK8   BANK9  BANK10  BANK1
      +1  BANK12  BANK13  BANK14  BANK15
  4453 ;;      Params:         1       0       0       0       0       0       0       0       0       0       0       0       
      +0       0       0       0       0
  4454 ;;      Locals:         1       0       0       0       0       0       0       0       0       0       0       0       
      +0       0       0       0       0
  4455 ;;      Temps:          0       0       0       0       0       0       0       0       0       0       0       0       
      +0       0       0       0       0
  4456 ;;      Totals:         2       0       0       0       0       0       0       0       0       0       0       0       
      +0       0       0       0       0
  4457 ;;Total ram usage:        2 bytes
  4458 ;; Hardware stack levels used: 1
  4459 ;; Hardware stack levels required when called: 3
  4460 ;; This function calls:
  4461 ;;		_gpio_pin_write_logic
  4462 ;; This function is called by:
  4463 ;;		_lcd_4bit_send_command
  4464 ;;		_lcd_4bit_send_data_char
  4465 ;; This function uses a non-reentrant model
  4466 ;;
  4467                           
  4468                           	psect	text27
  4469   0025EC                     __ptext27:
  4470                           	callstack 0
  4471   0025EC                     _lcd_send_4bit_enable:
  4472                           	callstack 24
  4473   0025EC                     
  4474                           ;ECU_Layer/CHR_LCD/ecu_chr_lcd.c: 316:     if((((void*)0)==lcd)){
  4475   0025EC  5045               	movf	lcd_send_4bit_enable@lcd^0,w,c
  4476   0025EE  A4D8               	btfss	status,2,c
  4477   0025F0  EFFC  F012         	goto	u6651
  4478   0025F4  EFFE  F012         	goto	u6650
  4479   0025F8                     u6651:
  4480   0025F8  EF02  F013         	goto	l7541
  4481   0025FC                     u6650:
  4482   0025FC                     
  4483                           ;ECU_Layer/CHR_LCD/ecu_chr_lcd.c: 317:         ret =(Std_ReturnType)0x00 ;
  4484   0025FC  0E00               	movlw	0
  4485   0025FE  6E46               	movwf	lcd_send_4bit_enable@ret^0,c
  4486                           
  4487                           ;ECU_Layer/CHR_LCD/ecu_chr_lcd.c: 318:     }else {
  4488   002600  EF14  F013         	goto	l7549
  4489   002604                     l7541:
  4490   002604  2845               	incf	lcd_send_4bit_enable@lcd^0,w,c
  4491   002606  6E3D               	movwf	gpio_pin_write_logic@_pin_t^0,c
  4492   002608  0E01               	movlw	1
  4493   00260A  6E3E               	movwf	gpio_pin_write_logic@logic^0,c
  4494   00260C  EC14  F00D         	call	_gpio_pin_write_logic	;wreg free
  4495   002610                     
  4496                           ;ECU_Layer/CHR_LCD/ecu_chr_lcd.c: 320:          _delay((unsigned long)((5)*(8000000UL/40
      +                          00000.0)));
  4497   002610  0E03               	movlw	3
  4498   002612                     u8217:
  4499   002612  2EE8               	decfsz	wreg,f,c
  4500   002614  D7FE               	bra	u8217
  4501   002616  0000               	nop	
  4502   002618  2845               	incf	lcd_send_4bit_enable@lcd^0,w,c
  4503   00261A  6E3D               	movwf	gpio_pin_write_logic@_pin_t^0,c
  4504   00261C  0E00               	movlw	0
  4505   00261E  6E3E               	movwf	gpio_pin_write_logic@logic^0,c
  4506   002620  EC14  F00D         	call	_gpio_pin_write_logic	;wreg free
  4507   002624                     
  4508                           ;ECU_Layer/CHR_LCD/ecu_chr_lcd.c: 322:         ret= (Std_ReturnType)0x01 ;
  4509   002624  0E01               	movlw	1
  4510   002626  6E46               	movwf	lcd_send_4bit_enable@ret^0,c
  4511   002628                     l7549:
  4512                           
  4513                           ;ECU_Layer/CHR_LCD/ecu_chr_lcd.c: 324:     return ret ;
  4514   002628  5046               	movf	lcd_send_4bit_enable@ret^0,w,c
  4515   00262A  0012               	return		;funcret
  4516   00262C                     __end_of_lcd_send_4bit_enable:
  4517                           	callstack 0
  4518                           
  4519 ;; *************** function _lcd_send_4bit_command_data *****************
  4520 ;; Defined at:
  4521 ;;		line 287 in file "ECU_Layer/CHR_LCD/ecu_chr_lcd.c"
  4522 ;; Parameters:    Size  Location     Type
  4523 ;;  lcd             1    9[COMRAM] PTR const struct .
  4524 ;;		 -> lcd_2(6), 
  4525 ;;  data            1   10[COMRAM] unsigned char 
  4526 ;; Auto vars:     Size  Location     Type
  4527 ;;  ret             1    0        unsigned char 
  4528 ;;  ret             1   11[COMRAM] unsigned char 
  4529 ;; Return value:  Size  Location     Type
  4530 ;;                  1    wreg      unsigned char 
  4531 ;; Registers used:
  4532 ;;		wreg, fsr2l, fsr2h, status,2, status,0, prodl, prodh, cstack
  4533 ;; Tracked objects:
  4534 ;;		On entry : 0/0
  4535 ;;		On exit  : 0/0
  4536 ;;		Unchanged: 0/0
  4537 ;; Data sizes:     COMRAM   BANK0   BANK1   BANK2   BANK3   BANK4   BANK5   BANK6   BANK7   BANK8   BANK9  BANK10  BANK1
      +1  BANK12  BANK13  BANK14  BANK15
  4538 ;;      Params:         2       0       0       0       0       0       0       0       0       0       0       0       
      +0       0       0       0       0
  4539 ;;      Locals:         1       0       0       0       0       0       0       0       0       0       0       0       
      +0       0       0       0       0
  4540 ;;      Temps:          0       0       0       0       0       0       0       0       0       0       0       0       
      +0       0       0       0       0
  4541 ;;      Totals:         3       0       0       0       0       0       0       0       0       0       0       0       
      +0       0       0       0       0
  4542 ;;Total ram usage:        3 bytes
  4543 ;; Hardware stack levels used: 1
  4544 ;; Hardware stack levels required when called: 3
  4545 ;; This function calls:
  4546 ;;		_gpio_pin_write_logic
  4547 ;; This function is called by:
  4548 ;;		_lcd_4bit_send_command
  4549 ;;		_lcd_4bit_send_data_char
  4550 ;; This function uses a non-reentrant model
  4551 ;;
  4552                           
  4553                           	psect	text28
  4554   0022C0                     __ptext28:
  4555                           	callstack 0
  4556   0022C0                     _lcd_send_4bit_command_data:
  4557                           	callstack 24
  4558   0022C0                     
  4559                           ;ECU_Layer/CHR_LCD/ecu_chr_lcd.c: 289:     if((((void*)0)==lcd)){
  4560   0022C0  5045               	movf	lcd_send_4bit_command_data@lcd^0,w,c
  4561   0022C2  A4D8               	btfss	status,2,c
  4562   0022C4  EF66  F011         	goto	u6641
  4563   0022C8  EF68  F011         	goto	u6640
  4564   0022CC                     u6641:
  4565   0022CC  EF6C  F011         	goto	l7529
  4566   0022D0                     u6640:
  4567   0022D0                     
  4568                           ;ECU_Layer/CHR_LCD/ecu_chr_lcd.c: 290:         ret =(Std_ReturnType)0x00 ;
  4569   0022D0  0E00               	movlw	0
  4570   0022D2  6E47               	movwf	lcd_send_4bit_command_data@ret^0,c
  4571                           
  4572                           ;ECU_Layer/CHR_LCD/ecu_chr_lcd.c: 291:     }else {
  4573   0022D4  EF95  F011         	goto	l7533
  4574   0022D8                     l7529:
  4575                           
  4576                           ;ECU_Layer/CHR_LCD/ecu_chr_lcd.c: 292:          ret = gpio_pin_write_logic(&(lcd->lcd_pi
      +                          ns[0]),(data>>0 )&(uint8)(0x01));
  4577   0022D8  5045               	movf	lcd_send_4bit_command_data@lcd^0,w,c
  4578   0022DA  0F02               	addlw	2
  4579   0022DC  6E3D               	movwf	gpio_pin_write_logic@_pin_t^0,c
  4580   0022DE  5046               	movf	lcd_send_4bit_command_data@data^0,w,c
  4581   0022E0  0B01               	andlw	1
  4582   0022E2  6E3E               	movwf	gpio_pin_write_logic@logic^0,c
  4583   0022E4  EC14  F00D         	call	_gpio_pin_write_logic	;wreg free
  4584   0022E8  6E47               	movwf	lcd_send_4bit_command_data@ret^0,c
  4585                           
  4586                           ;ECU_Layer/CHR_LCD/ecu_chr_lcd.c: 293:          ret = gpio_pin_write_logic(&(lcd->lcd_pi
      +                          ns[1]),(data>>1 )&(uint8)(0x01));
  4587   0022EA  5045               	movf	lcd_send_4bit_command_data@lcd^0,w,c
  4588   0022EC  0F03               	addlw	3
  4589   0022EE  6E3D               	movwf	gpio_pin_write_logic@_pin_t^0,c
  4590   0022F0  90D8               	bcf	status,0,c
  4591   0022F2  3046               	rrcf	lcd_send_4bit_command_data@data^0,w,c
  4592   0022F4  0B01               	andlw	1
  4593   0022F6  6E3E               	movwf	gpio_pin_write_logic@logic^0,c
  4594   0022F8  EC14  F00D         	call	_gpio_pin_write_logic	;wreg free
  4595   0022FC  6E47               	movwf	lcd_send_4bit_command_data@ret^0,c
  4596                           
  4597                           ;ECU_Layer/CHR_LCD/ecu_chr_lcd.c: 294:           ret = gpio_pin_write_logic(&(lcd->lcd_p
      +                          ins[2]),(data >>2)&(uint8)(0x01));
  4598   0022FE  5045               	movf	lcd_send_4bit_command_data@lcd^0,w,c
  4599   002300  0F04               	addlw	4
  4600   002302  6E3D               	movwf	gpio_pin_write_logic@_pin_t^0,c
  4601   002304  4046               	rrncf	lcd_send_4bit_command_data@data^0,w,c
  4602   002306  42E8               	rrncf	wreg,f,c
  4603   002308  0B3F               	andlw	63
  4604   00230A  0B01               	andlw	1
  4605   00230C  6E3E               	movwf	gpio_pin_write_logic@logic^0,c
  4606   00230E  EC14  F00D         	call	_gpio_pin_write_logic	;wreg free
  4607   002312  6E47               	movwf	lcd_send_4bit_command_data@ret^0,c
  4608                           
  4609                           ;ECU_Layer/CHR_LCD/ecu_chr_lcd.c: 295:            ret = gpio_pin_write_logic(&(lcd->lcd_
      +                          pins[3]),(data >>3)&(uint8)(0x01));
  4610   002314  5045               	movf	lcd_send_4bit_command_data@lcd^0,w,c
  4611   002316  0F05               	addlw	5
  4612   002318  6E3D               	movwf	gpio_pin_write_logic@_pin_t^0,c
  4613   00231A  3846               	swapf	lcd_send_4bit_command_data@data^0,w,c
  4614   00231C  46E8               	rlncf	wreg,f,c
  4615   00231E  0B1F               	andlw	31
  4616   002320  0B01               	andlw	1
  4617   002322  6E3E               	movwf	gpio_pin_write_logic@logic^0,c
  4618   002324  EC14  F00D         	call	_gpio_pin_write_logic	;wreg free
  4619   002328  6E47               	movwf	lcd_send_4bit_command_data@ret^0,c
  4620   00232A                     l7533:
  4621                           
  4622                           ;ECU_Layer/CHR_LCD/ecu_chr_lcd.c: 298:     return ret ;
  4623   00232A  5047               	movf	lcd_send_4bit_command_data@ret^0,w,c
  4624   00232C  0012               	return		;funcret
  4625   00232E                     __end_of_lcd_send_4bit_command_data:
  4626                           	callstack 0
  4627                           
  4628 ;; *************** function _keypad_initialize *****************
  4629 ;; Defined at:
  4630 ;;		line 20 in file "ECU_Layer/KEYPAD/ecu_keypad.c"
  4631 ;; Parameters:    Size  Location     Type
  4632 ;;  keypad          1   12[COMRAM] PTR const struct .
  4633 ;;		 -> keypad_1(8), 
  4634 ;; Auto vars:     Size  Location     Type
  4635 ;;  column_count    1   15[COMRAM] unsigned char 
  4636 ;;  row_counter     1   14[COMRAM] unsigned char 
  4637 ;;  ret             1   13[COMRAM] unsigned char 
  4638 ;; Return value:  Size  Location     Type
  4639 ;;                  1    wreg      unsigned char 
  4640 ;; Registers used:
  4641 ;;		wreg, fsr2l, fsr2h, status,2, status,0, prodl, prodh, cstack
  4642 ;; Tracked objects:
  4643 ;;		On entry : 0/0
  4644 ;;		On exit  : 0/0
  4645 ;;		Unchanged: 0/0
  4646 ;; Data sizes:     COMRAM   BANK0   BANK1   BANK2   BANK3   BANK4   BANK5   BANK6   BANK7   BANK8   BANK9  BANK10  BANK1
      +1  BANK12  BANK13  BANK14  BANK15
  4647 ;;      Params:         1       0       0       0       0       0       0       0       0       0       0       0       
      +0       0       0       0       0
  4648 ;;      Locals:         3       0       0       0       0       0       0       0       0       0       0       0       
      +0       0       0       0       0
  4649 ;;      Temps:          0       0       0       0       0       0       0       0       0       0       0       0       
      +0       0       0       0       0
  4650 ;;      Totals:         4       0       0       0       0       0       0       0       0       0       0       0       
      +0       0       0       0       0
  4651 ;;Total ram usage:        4 bytes
  4652 ;; Hardware stack levels used: 1
  4653 ;; Hardware stack levels required when called: 4
  4654 ;; This function calls:
  4655 ;;		_gpio_pin_direction_intialize
  4656 ;;		_gpio_pin_intialize
  4657 ;; This function is called by:
  4658 ;;		_app_initialize
  4659 ;; This function uses a non-reentrant model
  4660 ;;
  4661                           
  4662                           	psect	text29
  4663   00232E                     __ptext29:
  4664                           	callstack 0
  4665   00232E                     _keypad_initialize:
  4666                           	callstack 25
  4667   00232E                     
  4668                           ;ECU_Layer/KEYPAD/ecu_keypad.c: 22: uint8 row_counter = 0 , column_counter =0 ;
  4669   00232E  0E00               	movlw	0
  4670   002330  6E4A               	movwf	keypad_initialize@row_counter^0,c
  4671   002332  0E00               	movlw	0
  4672   002334  6E4B               	movwf	keypad_initialize@column_counter^0,c
  4673                           
  4674                           ;ECU_Layer/KEYPAD/ecu_keypad.c: 23:     if(((void*)0)==keypad)
  4675   002336  5048               	movf	keypad_initialize@keypad^0,w,c
  4676   002338  A4D8               	btfss	status,2,c
  4677   00233A  EFA1  F011         	goto	u7171
  4678   00233E  EFA3  F011         	goto	u7170
  4679   002342                     u7171:
  4680   002342  EFA7  F011         	goto	l7937
  4681   002346                     u7170:
  4682   002346                     
  4683                           ;ECU_Layer/KEYPAD/ecu_keypad.c: 24:     {;ECU_Layer/KEYPAD/ecu_keypad.c: 25:         ret
      +                           =(Std_ReturnType)0x00 ;
  4684   002346  0E00               	movlw	0
  4685   002348  6E49               	movwf	keypad_initialize@ret^0,c
  4686                           
  4687                           ;ECU_Layer/KEYPAD/ecu_keypad.c: 26:     }else
  4688   00234A  EFCA  F011         	goto	l252
  4689   00234E                     l7937:
  4690                           
  4691                           ;ECU_Layer/KEYPAD/ecu_keypad.c: 27:     {;ECU_Layer/KEYPAD/ecu_keypad.c: 28:      for(ro
      +                          w_counter = 0 ; row_counter < 4 ; row_counter++ ){
  4692   00234E  0E00               	movlw	0
  4693   002350  6E4A               	movwf	keypad_initialize@row_counter^0,c
  4694   002352                     l7943:
  4695   002352  5048               	movf	keypad_initialize@keypad^0,w,c
  4696   002354  244A               	addwf	keypad_initialize@row_counter^0,w,c
  4697   002356  6E45               	movwf	gpio_pin_intialize@_pin_t^0,c
  4698   002358  ECFD  F011         	call	_gpio_pin_intialize	;wreg free
  4699   00235C                     
  4700                           ;ECU_Layer/KEYPAD/ecu_keypad.c: 30:         }
  4701   00235C  2A4A               	incf	keypad_initialize@row_counter^0,f,c
  4702   00235E  0E03               	movlw	3
  4703   002360  644A               	cpfsgt	keypad_initialize@row_counter^0,c
  4704   002362  EFB5  F011         	goto	u7181
  4705   002366  EFB7  F011         	goto	u7180
  4706   00236A                     u7181:
  4707   00236A  EFA9  F011         	goto	l7943
  4708   00236E                     u7180:
  4709   00236E                     
  4710                           ;ECU_Layer/KEYPAD/ecu_keypad.c: 31:          for(column_counter = 0 ; column_counter < 4
      +                           ; column_counter++ ){
  4711   00236E  0E00               	movlw	0
  4712   002370  6E4B               	movwf	keypad_initialize@column_counter^0,c
  4713   002372                     l7955:
  4714   002372  5048               	movf	keypad_initialize@keypad^0,w,c
  4715   002374  244B               	addwf	keypad_initialize@column_counter^0,w,c
  4716   002376  0F04               	addlw	4
  4717   002378  6E3D               	movwf	gpio_pin_direction_intialize@__pin_t^0,c
  4718   00237A  EC81  F00C         	call	_gpio_pin_direction_intialize	;wreg free
  4719   00237E                     
  4720                           ;ECU_Layer/KEYPAD/ecu_keypad.c: 33:         }
  4721   00237E  2A4B               	incf	keypad_initialize@column_counter^0,f,c
  4722   002380  0E03               	movlw	3
  4723   002382  644B               	cpfsgt	keypad_initialize@column_counter^0,c
  4724   002384  EFC6  F011         	goto	u7191
  4725   002388  EFC8  F011         	goto	u7190
  4726   00238C                     u7191:
  4727   00238C  EFB9  F011         	goto	l7955
  4728   002390                     u7190:
  4729   002390                     
  4730                           ;ECU_Layer/KEYPAD/ecu_keypad.c: 34:         ret = (Std_ReturnType)0x01 ;
  4731   002390  0E01               	movlw	1
  4732   002392  6E49               	movwf	keypad_initialize@ret^0,c
  4733   002394                     l252:
  4734                           
  4735                           ;ECU_Layer/KEYPAD/ecu_keypad.c: 36:     return ret;
  4736   002394  5049               	movf	keypad_initialize@ret^0,w,c
  4737   002396  0012               	return		;funcret
  4738   002398                     __end_of_keypad_initialize:
  4739                           	callstack 0
  4740                           
  4741 ;; *************** function _gpio_pin_intialize *****************
  4742 ;; Defined at:
  4743 ;;		line 155 in file "MCAL_Layer/GPIO/hal_gpio.c"
  4744 ;; Parameters:    Size  Location     Type
  4745 ;;  _pin_t          1    9[COMRAM] PTR struct .
  4746 ;;		 -> motor_2$motors(2), motor_2(2), motor_1$motors(2), motor_1(2), 
  4747 ;;		 -> lcd_2$lcd_pins(4), lcd_2$pin_en(1), lcd_2$pin_Rs(1), lcd_2(6), 
  4748 ;;		 -> keypad_1$pad_row(4), keypad_1(8), spi_slave_mode_configuration@SS_PIN(1), spi_slave_mode_configuration@SKL(1), 
  4749 ;;		 -> spi_slave_mode_configuration@SDI(1), spi_slave_mode_configuration@SDO(1), spi_master_mode_configuration@SKL(1), 
      +spi_master_mode_configuration@SDI(1), 
  4750 ;;		 -> spi_master_mode_configuration@SDO(1), relay_initalize@obj(1), led_intalize@obj(1), 
  4751 ;; Auto vars:     Size  Location     Type
  4752 ;;  ret             1   11[COMRAM] unsigned char 
  4753 ;; Return value:  Size  Location     Type
  4754 ;;                  1    wreg      unsigned char 
  4755 ;; Registers used:
  4756 ;;		wreg, fsr2l, fsr2h, status,2, status,0, prodl, prodh, cstack
  4757 ;; Tracked objects:
  4758 ;;		On entry : 0/0
  4759 ;;		On exit  : 0/0
  4760 ;;		Unchanged: 0/0
  4761 ;; Data sizes:     COMRAM   BANK0   BANK1   BANK2   BANK3   BANK4   BANK5   BANK6   BANK7   BANK8   BANK9  BANK10  BANK1
      +1  BANK12  BANK13  BANK14  BANK15
  4762 ;;      Params:         1       0       0       0       0       0       0       0       0       0       0       0       
      +0       0       0       0       0
  4763 ;;      Locals:         1       0       0       0       0       0       0       0       0       0       0       0       
      +0       0       0       0       0
  4764 ;;      Temps:          1       0       0       0       0       0       0       0       0       0       0       0       
      +0       0       0       0       0
  4765 ;;      Totals:         3       0       0       0       0       0       0       0       0       0       0       0       
      +0       0       0       0       0
  4766 ;;Total ram usage:        3 bytes
  4767 ;; Hardware stack levels used: 1
  4768 ;; Hardware stack levels required when called: 3
  4769 ;; This function calls:
  4770 ;;		_gpio_pin_direction_intialize
  4771 ;;		_gpio_pin_write_logic
  4772 ;; This function is called by:
  4773 ;;		_lcd_4bit_initialize
  4774 ;;		_motor_initialize
  4775 ;;		_keypad_initialize
  4776 ;;		_led_intalize
  4777 ;;		_Segment_initalize
  4778 ;;		_lcd_8bit_initialize
  4779 ;;		_relay_initalize
  4780 ;;		_CCP_INIt
  4781 ;;		_spi_master_mode_configuration
  4782 ;;		_spi_slave_mode_configuration
  4783 ;; This function uses a non-reentrant model
  4784 ;;
  4785                           
  4786                           	psect	text30
  4787   0023FA                     __ptext30:
  4788                           	callstack 0
  4789   0023FA                     _gpio_pin_intialize:
  4790                           	callstack 25
  4791   0023FA                     
  4792                           ;MCAL_Layer/GPIO/hal_gpio.c: 158:     if((((void*)0) ==_pin_t)|| _pin_t->pin > (8)-1 )
  4793   0023FA  5045               	movf	gpio_pin_intialize@_pin_t^0,w,c
  4794   0023FC  B4D8               	btfsc	status,2,c
  4795   0023FE  EF03  F012         	goto	u7001
  4796   002402  EF05  F012         	goto	u7000
  4797   002406                     u7001:
  4798   002406  EF15  F012         	goto	l7737
  4799   00240A                     u7000:
  4800   00240A  5045               	movf	gpio_pin_intialize@_pin_t^0,w,c
  4801   00240C  6ED9               	movwf	fsr2l,c
  4802   00240E  6ADA               	clrf	fsr2h,c
  4803   002410  30DF               	rrcf	223,w,c
  4804   002412  32E8               	rrcf	wreg,f,c
  4805   002414  32E8               	rrcf	wreg,f,c
  4806   002416  0B07               	andlw	7
  4807   002418  6E46               	movwf	??_gpio_pin_intialize^0,c
  4808   00241A  0E07               	movlw	7
  4809   00241C  6446               	cpfsgt	??_gpio_pin_intialize^0,c
  4810   00241E  EF13  F012         	goto	u7011
  4811   002422  EF15  F012         	goto	u7010
  4812   002426                     u7011:
  4813   002426  EF19  F012         	goto	l7739
  4814   00242A                     u7010:
  4815   00242A                     l7737:
  4816                           
  4817                           ;MCAL_Layer/GPIO/hal_gpio.c: 159:     {;MCAL_Layer/GPIO/hal_gpio.c: 160:         ret =(S
      +                          td_ReturnType)0x00;
  4818   00242A  0E00               	movlw	0
  4819   00242C  6E47               	movwf	gpio_pin_intialize@ret^0,c
  4820                           
  4821                           ;MCAL_Layer/GPIO/hal_gpio.c: 161:     }
  4822   00242E  EF2A  F012         	goto	l7741
  4823   002432                     l7739:
  4824                           
  4825                           ;MCAL_Layer/GPIO/hal_gpio.c: 163:     {;MCAL_Layer/GPIO/hal_gpio.c: 164:         ret = g
      +                          pio_pin_direction_intialize(_pin_t);
  4826   002432  C045  F03D         	movff	gpio_pin_intialize@_pin_t,gpio_pin_direction_intialize@__pin_t
  4827   002436  EC81  F00C         	call	_gpio_pin_direction_intialize	;wreg free
  4828   00243A  6E47               	movwf	gpio_pin_intialize@ret^0,c
  4829                           
  4830                           ;MCAL_Layer/GPIO/hal_gpio.c: 165:         ret = gpio_pin_write_logic(_pin_t ,_pin_t->log
      +                          ic);
  4831   00243C  C045  F03D         	movff	gpio_pin_intialize@_pin_t,gpio_pin_write_logic@_pin_t
  4832   002440  5045               	movf	gpio_pin_intialize@_pin_t^0,w,c
  4833   002442  6ED9               	movwf	fsr2l,c
  4834   002444  6ADA               	clrf	fsr2h,c
  4835   002446  0E00               	movlw	0
  4836   002448  BEDF               	btfsc	indf2,7,c
  4837   00244A  0E01               	movlw	1
  4838   00244C  6E3E               	movwf	gpio_pin_write_logic@logic^0,c
  4839   00244E  EC14  F00D         	call	_gpio_pin_write_logic	;wreg free
  4840   002452  6E47               	movwf	gpio_pin_intialize@ret^0,c
  4841   002454                     l7741:
  4842                           
  4843                           ;MCAL_Layer/GPIO/hal_gpio.c: 169: return ret;
  4844   002454  5047               	movf	gpio_pin_intialize@ret^0,w,c
  4845   002456  0012               	return		;funcret
  4846   002458                     __end_of_gpio_pin_intialize:
  4847                           	callstack 0
  4848                           
  4849 ;; *************** function _gpio_pin_write_logic *****************
  4850 ;; Defined at:
  4851 ;;		line 77 in file "MCAL_Layer/GPIO/hal_gpio.c"
  4852 ;; Parameters:    Size  Location     Type
  4853 ;;  _pin_t          1    1[COMRAM] PTR const struct .
  4854 ;;		 -> motor_2$motors(2), motor_2(2), motor_1$motors(2), motor_1(2), 
  4855 ;;		 -> lcd_2$lcd_pins(4), lcd_2$pin_en(1), lcd_2$pin_Rs(1), lcd_2(6), 
  4856 ;;		 -> keypad_1$pad_row(4), keypad_1(8), spi_slave_mode_configuration@SS_PIN(1), spi_slave_mode_configuration@SKL(1), 
  4857 ;;		 -> spi_slave_mode_configuration@SDI(1), spi_slave_mode_configuration@SDO(1), spi_master_mode_configuration@SKL(1), 
      +spi_master_mode_configuration@SDI(1), 
  4858 ;;		 -> spi_master_mode_configuration@SDO(1), relay_off@obj(1), relay_on@obj(1), relay_initalize@obj(1), 
  4859 ;;		 -> led_off@obj(1), led_on@obj(1), led_intalize@obj(1), 
  4860 ;;  logic           1    2[COMRAM] enum E2978
  4861 ;; Auto vars:     Size  Location     Type
  4862 ;;  ret             1    8[COMRAM] unsigned char 
  4863 ;; Return value:  Size  Location     Type
  4864 ;;                  1    wreg      unsigned char 
  4865 ;; Registers used:
  4866 ;;		wreg, fsr2l, fsr2h, status,2, status,0, prodl, prodh
  4867 ;; Tracked objects:
  4868 ;;		On entry : 0/0
  4869 ;;		On exit  : 0/0
  4870 ;;		Unchanged: 0/0
  4871 ;; Data sizes:     COMRAM   BANK0   BANK1   BANK2   BANK3   BANK4   BANK5   BANK6   BANK7   BANK8   BANK9  BANK10  BANK1
      +1  BANK12  BANK13  BANK14  BANK15
  4872 ;;      Params:         2       0       0       0       0       0       0       0       0       0       0       0       
      +0       0       0       0       0
  4873 ;;      Locals:         1       0       0       0       0       0       0       0       0       0       0       0       
      +0       0       0       0       0
  4874 ;;      Temps:          5       0       0       0       0       0       0       0       0       0       0       0       
      +0       0       0       0       0
  4875 ;;      Totals:         8       0       0       0       0       0       0       0       0       0       0       0       
      +0       0       0       0       0
  4876 ;;Total ram usage:        8 bytes
  4877 ;; Hardware stack levels used: 1
  4878 ;; Hardware stack levels required when called: 2
  4879 ;; This function calls:
  4880 ;;		Nothing
  4881 ;; This function is called by:
  4882 ;;		_lcd_4bit_send_command
  4883 ;;		_lcd_4bit_send_data_char
  4884 ;;		_lcd_send_4bit_command_data
  4885 ;;		_lcd_send_4bit_enable
  4886 ;;		_motor_move_right
  4887 ;;		_motor_move_left
  4888 ;;		_keypad_get_value
  4889 ;;		_led_on
  4890 ;;		_gpio_pin_intialize
  4891 ;;		_Segment_Write_number
  4892 ;;		_lcd_8bit_send_command
  4893 ;;		_lcd_8bit_send_data_char
  4894 ;;		_lcd_send_8bit_enable
  4895 ;;		_motor_stop
  4896 ;;		_led_off
  4897 ;;		_relay_on
  4898 ;;		_relay_off
  4899 ;; This function uses a non-reentrant model
  4900 ;;
  4901                           
  4902                           	psect	text31
  4903   001A28                     __ptext31:
  4904                           	callstack 0
  4905   001A28                     _gpio_pin_write_logic:
  4906                           	callstack 27
  4907   001A28                     
  4908                           ;MCAL_Layer/GPIO/hal_gpio.c: 78:     Std_ReturnType ret = (Std_ReturnType)0x01;
  4909   001A28  0E01               	movlw	1
  4910   001A2A  6E44               	movwf	gpio_pin_write_logic@ret^0,c
  4911                           
  4912                           ;MCAL_Layer/GPIO/hal_gpio.c: 79:     if( ((void*)0) ==_pin_t || _pin_t->pin > (8)-1 )
  4913   001A2C  503D               	movf	gpio_pin_write_logic@_pin_t^0,w,c
  4914   001A2E  B4D8               	btfsc	status,2,c
  4915   001A30  EF1C  F00D         	goto	u6601
  4916   001A34  EF1E  F00D         	goto	u6600
  4917   001A38                     u6601:
  4918   001A38  EF2E  F00D         	goto	l7507
  4919   001A3C                     u6600:
  4920   001A3C  503D               	movf	gpio_pin_write_logic@_pin_t^0,w,c
  4921   001A3E  6ED9               	movwf	fsr2l,c
  4922   001A40  6ADA               	clrf	fsr2h,c
  4923   001A42  30DF               	rrcf	223,w,c
  4924   001A44  32E8               	rrcf	wreg,f,c
  4925   001A46  32E8               	rrcf	wreg,f,c
  4926   001A48  0B07               	andlw	7
  4927   001A4A  6E3F               	movwf	??_gpio_pin_write_logic^0,c
  4928   001A4C  0E07               	movlw	7
  4929   001A4E  643F               	cpfsgt	??_gpio_pin_write_logic^0,c
  4930   001A50  EF2C  F00D         	goto	u6611
  4931   001A54  EF2E  F00D         	goto	u6610
  4932   001A58                     u6611:
  4933   001A58  EF85  F00D         	goto	l7515
  4934   001A5C                     u6610:
  4935   001A5C                     l7507:
  4936                           
  4937                           ;MCAL_Layer/GPIO/hal_gpio.c: 80:     {;MCAL_Layer/GPIO/hal_gpio.c: 81:         ret = (St
      +                          d_ReturnType)0x00;
  4938   001A5C  0E00               	movlw	0
  4939   001A5E  6E44               	movwf	gpio_pin_write_logic@ret^0,c
  4940                           
  4941                           ;MCAL_Layer/GPIO/hal_gpio.c: 82:     }
  4942   001A60  EF9A  F00D         	goto	l7517
  4943   001A64                     l7509:
  4944                           
  4945                           ;MCAL_Layer/GPIO/hal_gpio.c: 87:               (*lat_registers[_pin_t->port] |= ( (uint8
      +                          ) 1 << _pin_t->pin )) ;
  4946   001A64  503D               	movf	gpio_pin_write_logic@_pin_t^0,w,c
  4947   001A66  6ED9               	movwf	fsr2l,c
  4948   001A68  6ADA               	clrf	fsr2h,c
  4949   001A6A  30DF               	rrcf	223,w,c
  4950   001A6C  32E8               	rrcf	wreg,f,c
  4951   001A6E  32E8               	rrcf	wreg,f,c
  4952   001A70  0B07               	andlw	7
  4953   001A72  6E3F               	movwf	??_gpio_pin_write_logic^0,c
  4954   001A74  0E01               	movlw	1
  4955   001A76  6E40               	movwf	(??_gpio_pin_write_logic+1)^0,c
  4956   001A78  2A3F               	incf	??_gpio_pin_write_logic^0,f,c
  4957   001A7A  EF41  F00D         	goto	u6624
  4958   001A7E                     u6625:
  4959   001A7E  90D8               	bcf	status,0,c
  4960   001A80  3640               	rlcf	(??_gpio_pin_write_logic+1)^0,f,c
  4961   001A82                     u6624:
  4962   001A82  2E3F               	decfsz	??_gpio_pin_write_logic^0,f,c
  4963   001A84  EF3F  F00D         	goto	u6625
  4964   001A88  503D               	movf	gpio_pin_write_logic@_pin_t^0,w,c
  4965   001A8A  6ED9               	movwf	fsr2l,c
  4966   001A8C  6ADA               	clrf	fsr2h,c
  4967   001A8E  50DF               	movf	223,w,c
  4968   001A90  0B07               	andlw	7
  4969   001A92  0D02               	mullw	2
  4970   001A94  50F3               	movf	243,w,c
  4971   001A96  0FC2               	addlw	low _lat_registers
  4972   001A98  6ED9               	movwf	fsr2l,c
  4973   001A9A  6ADA               	clrf	fsr2h,c
  4974   001A9C  CFDE F041          	movff	postinc2,??_gpio_pin_write_logic+2
  4975   001AA0  CFDD F042          	movff	postdec2,??_gpio_pin_write_logic+3
  4976   001AA4  C041  FFD9         	movff	??_gpio_pin_write_logic+2,fsr2l
  4977   001AA8  C042  FFDA         	movff	??_gpio_pin_write_logic+3,fsr2h
  4978   001AAC  5040               	movf	(??_gpio_pin_write_logic+1)^0,w,c
  4979   001AAE  12DF               	iorwf	indf2,f,c
  4980                           
  4981                           ;MCAL_Layer/GPIO/hal_gpio.c: 88:               break;
  4982   001AB0  EF9A  F00D         	goto	l7517
  4983   001AB4                     l7511:
  4984                           
  4985                           ;MCAL_Layer/GPIO/hal_gpio.c: 90:             (*lat_registers[_pin_t->port] &= ~( (uint8)
      +                           1 << _pin_t->pin )) ;
  4986   001AB4  503D               	movf	gpio_pin_write_logic@_pin_t^0,w,c
  4987   001AB6  6ED9               	movwf	fsr2l,c
  4988   001AB8  6ADA               	clrf	fsr2h,c
  4989   001ABA  30DF               	rrcf	223,w,c
  4990   001ABC  32E8               	rrcf	wreg,f,c
  4991   001ABE  32E8               	rrcf	wreg,f,c
  4992   001AC0  0B07               	andlw	7
  4993   001AC2  6E3F               	movwf	??_gpio_pin_write_logic^0,c
  4994   001AC4  0E01               	movlw	1
  4995   001AC6  6E40               	movwf	(??_gpio_pin_write_logic+1)^0,c
  4996   001AC8  2A3F               	incf	??_gpio_pin_write_logic^0,f,c
  4997   001ACA  EF69  F00D         	goto	u6634
  4998   001ACE                     u6635:
  4999   001ACE  90D8               	bcf	status,0,c
  5000   001AD0  3640               	rlcf	(??_gpio_pin_write_logic+1)^0,f,c
  5001   001AD2                     u6634:
  5002   001AD2  2E3F               	decfsz	??_gpio_pin_write_logic^0,f,c
  5003   001AD4  EF67  F00D         	goto	u6635
  5004   001AD8  5040               	movf	(??_gpio_pin_write_logic+1)^0,w,c
  5005   001ADA  0AFF               	xorlw	255
  5006   001ADC  6E41               	movwf	(??_gpio_pin_write_logic+2)^0,c
  5007   001ADE  503D               	movf	gpio_pin_write_logic@_pin_t^0,w,c
  5008   001AE0  6ED9               	movwf	fsr2l,c
  5009   001AE2  6ADA               	clrf	fsr2h,c
  5010   001AE4  50DF               	movf	223,w,c
  5011   001AE6  0B07               	andlw	7
  5012   001AE8  0D02               	mullw	2
  5013   001AEA  50F3               	movf	243,w,c
  5014   001AEC  0FC2               	addlw	low _lat_registers
  5015   001AEE  6ED9               	movwf	fsr2l,c
  5016   001AF0  6ADA               	clrf	fsr2h,c
  5017   001AF2  CFDE F042          	movff	postinc2,??_gpio_pin_write_logic+3
  5018   001AF6  CFDD F043          	movff	postdec2,??_gpio_pin_write_logic+4
  5019   001AFA  C042  FFD9         	movff	??_gpio_pin_write_logic+3,fsr2l
  5020   001AFE  C043  FFDA         	movff	??_gpio_pin_write_logic+4,fsr2h
  5021   001B02  5041               	movf	(??_gpio_pin_write_logic+2)^0,w,c
  5022   001B04  16DF               	andwf	indf2,f,c
  5023                           
  5024                           ;MCAL_Layer/GPIO/hal_gpio.c: 91:             break;
  5025   001B06  EF9A  F00D         	goto	l7517
  5026   001B0A                     l7515:
  5027   001B0A  503E               	movf	gpio_pin_write_logic@logic^0,w,c
  5028   001B0C  6E3F               	movwf	??_gpio_pin_write_logic^0,c
  5029   001B0E  6A40               	clrf	(??_gpio_pin_write_logic+1)^0,c
  5030                           
  5031                           ; Switch on 2 bytes has been partitioned into a top level switch of size 1, and 1 sub-sw
      +                          itches
  5032                           ; Switch size 1, requested type "simple"
  5033                           ; Number of cases is 1, Range of values is 0 to 0
  5034                           ; switch strategies available:
  5035                           ; Name         Instructions Cycles
  5036                           ; simple_byte            4     3 (average)
  5037                           ;	Chosen strategy is simple_byte
  5038   001B10  5040               	movf	(??_gpio_pin_write_logic+1)^0,w,c
  5039   001B12  0A00               	xorlw	0	; case 0
  5040   001B14  B4D8               	btfsc	status,2,c
  5041   001B16  EF8F  F00D         	goto	l8883
  5042   001B1A  EF2E  F00D         	goto	l7507
  5043   001B1E                     l8883:
  5044                           
  5045                           ; Switch size 1, requested type "simple"
  5046                           ; Number of cases is 2, Range of values is 0 to 1
  5047                           ; switch strategies available:
  5048                           ; Name         Instructions Cycles
  5049                           ; simple_byte            7     4 (average)
  5050                           ;	Chosen strategy is simple_byte
  5051   001B1E  503F               	movf	??_gpio_pin_write_logic^0,w,c
  5052   001B20  0A00               	xorlw	0	; case 0
  5053   001B22  B4D8               	btfsc	status,2,c
  5054   001B24  EF5A  F00D         	goto	l7511
  5055   001B28  0A01               	xorlw	1	; case 1
  5056   001B2A  B4D8               	btfsc	status,2,c
  5057   001B2C  EF32  F00D         	goto	l7509
  5058   001B30  EF2E  F00D         	goto	l7507
  5059   001B34                     l7517:
  5060                           
  5061                           ;MCAL_Layer/GPIO/hal_gpio.c: 98:     return ret;
  5062   001B34  5044               	movf	gpio_pin_write_logic@ret^0,w,c
  5063   001B36  0012               	return		;funcret
  5064   001B38                     __end_of_gpio_pin_write_logic:
  5065                           	callstack 0
  5066                           
  5067 ;; *************** function _gpio_pin_direction_intialize *****************
  5068 ;; Defined at:
  5069 ;;		line 22 in file "MCAL_Layer/GPIO/hal_gpio.c"
  5070 ;; Parameters:    Size  Location     Type
  5071 ;;  __pin_t         1    1[COMRAM] PTR const struct .
  5072 ;;		 -> motor_2$motors(2), motor_2(2), motor_1$motors(2), motor_1(2), 
  5073 ;;		 -> lcd_2$lcd_pins(4), lcd_2$pin_en(1), lcd_2$pin_Rs(1), lcd_2(6), 
  5074 ;;		 -> keypad_1$pad_column(4), keypad_1$pad_row(4), keypad_1(8), spi_slave_mode_configuration@SS_PIN(1), 
  5075 ;;		 -> spi_slave_mode_configuration@SKL(1), spi_slave_mode_configuration@SDI(1), spi_slave_mode_configuration@SDO(1), s
      +pi_master_mode_configuration@SKL(1), 
  5076 ;;		 -> spi_master_mode_configuration@SDI(1), spi_master_mode_configuration@SDO(1), relay_initalize@obj(1), led_intalize
      +@obj(1), 
  5077 ;; Auto vars:     Size  Location     Type
  5078 ;;  ret             1    7[COMRAM] unsigned char 
  5079 ;; Return value:  Size  Location     Type
  5080 ;;                  1    wreg      unsigned char 
  5081 ;; Registers used:
  5082 ;;		wreg, fsr2l, fsr2h, status,2, status,0, prodl, prodh
  5083 ;; Tracked objects:
  5084 ;;		On entry : 0/0
  5085 ;;		On exit  : 0/0
  5086 ;;		Unchanged: 0/0
  5087 ;; Data sizes:     COMRAM   BANK0   BANK1   BANK2   BANK3   BANK4   BANK5   BANK6   BANK7   BANK8   BANK9  BANK10  BANK1
      +1  BANK12  BANK13  BANK14  BANK15
  5088 ;;      Params:         1       0       0       0       0       0       0       0       0       0       0       0       
      +0       0       0       0       0
  5089 ;;      Locals:         1       0       0       0       0       0       0       0       0       0       0       0       
      +0       0       0       0       0
  5090 ;;      Temps:          5       0       0       0       0       0       0       0       0       0       0       0       
      +0       0       0       0       0
  5091 ;;      Totals:         7       0       0       0       0       0       0       0       0       0       0       0       
      +0       0       0       0       0
  5092 ;;Total ram usage:        7 bytes
  5093 ;; Hardware stack levels used: 1
  5094 ;; Hardware stack levels required when called: 2
  5095 ;; This function calls:
  5096 ;;		Nothing
  5097 ;; This function is called by:
  5098 ;;		_keypad_initialize
  5099 ;;		_gpio_pin_intialize
  5100 ;;		_button_initalize
  5101 ;;		_Interrupt_RBx_Init
  5102 ;;		_Interrupt_INTx_Pin_init
  5103 ;;		_Interrupt_RBx_Pin_init
  5104 ;; This function uses a non-reentrant model
  5105 ;;
  5106                           
  5107                           	psect	text32
  5108   001902                     __ptext32:
  5109                           	callstack 0
  5110   001902                     _gpio_pin_direction_intialize:
  5111                           	callstack 25
  5112   001902                     
  5113                           ;MCAL_Layer/GPIO/hal_gpio.c: 23:     Std_ReturnType ret = (Std_ReturnType)0x01;
  5114   001902  0E01               	movlw	1
  5115   001904  6E43               	movwf	gpio_pin_direction_intialize@ret^0,c
  5116                           
  5117                           ;MCAL_Layer/GPIO/hal_gpio.c: 24:     if( ((void*)0) ==__pin_t ||__pin_t ->pin > (8)-1 )
  5118   001906  503D               	movf	gpio_pin_direction_intialize@__pin_t^0,w,c
  5119   001908  B4D8               	btfsc	status,2,c
  5120   00190A  EF89  F00C         	goto	u6831
  5121   00190E  EF8B  F00C         	goto	u6830
  5122   001912                     u6831:
  5123   001912  EF9B  F00C         	goto	l7655
  5124   001916                     u6830:
  5125   001916  503D               	movf	gpio_pin_direction_intialize@__pin_t^0,w,c
  5126   001918  6ED9               	movwf	fsr2l,c
  5127   00191A  6ADA               	clrf	fsr2h,c
  5128   00191C  30DF               	rrcf	223,w,c
  5129   00191E  32E8               	rrcf	wreg,f,c
  5130   001920  32E8               	rrcf	wreg,f,c
  5131   001922  0B07               	andlw	7
  5132   001924  6E3E               	movwf	??_gpio_pin_direction_intialize^0,c
  5133   001926  0E07               	movlw	7
  5134   001928  643E               	cpfsgt	??_gpio_pin_direction_intialize^0,c
  5135   00192A  EF99  F00C         	goto	u6841
  5136   00192E  EF9B  F00C         	goto	u6840
  5137   001932                     u6841:
  5138   001932  EFF2  F00C         	goto	l7663
  5139   001936                     u6840:
  5140   001936                     l7655:
  5141                           
  5142                           ;MCAL_Layer/GPIO/hal_gpio.c: 25:     {;MCAL_Layer/GPIO/hal_gpio.c: 26:         ret = (St
      +                          d_ReturnType)0x00;
  5143   001936  0E00               	movlw	0
  5144   001938  6E43               	movwf	gpio_pin_direction_intialize@ret^0,c
  5145                           
  5146                           ;MCAL_Layer/GPIO/hal_gpio.c: 27:     }
  5147   00193A  EF12  F00D         	goto	l7665
  5148   00193E                     l7657:
  5149                           
  5150                           ;MCAL_Layer/GPIO/hal_gpio.c: 33:             (*tris_registers[__pin_t ->port] &= ~( (uin
      +                          t8) 1 << __pin_t ->pin ));
  5151   00193E  503D               	movf	gpio_pin_direction_intialize@__pin_t^0,w,c
  5152   001940  6ED9               	movwf	fsr2l,c
  5153   001942  6ADA               	clrf	fsr2h,c
  5154   001944  30DF               	rrcf	223,w,c
  5155   001946  32E8               	rrcf	wreg,f,c
  5156   001948  32E8               	rrcf	wreg,f,c
  5157   00194A  0B07               	andlw	7
  5158   00194C  6E3E               	movwf	??_gpio_pin_direction_intialize^0,c
  5159   00194E  0E01               	movlw	1
  5160   001950  6E3F               	movwf	(??_gpio_pin_direction_intialize+1)^0,c
  5161   001952  2A3E               	incf	??_gpio_pin_direction_intialize^0,f,c
  5162   001954  EFAE  F00C         	goto	u6854
  5163   001958                     u6855:
  5164   001958  90D8               	bcf	status,0,c
  5165   00195A  363F               	rlcf	(??_gpio_pin_direction_intialize+1)^0,f,c
  5166   00195C                     u6854:
  5167   00195C  2E3E               	decfsz	??_gpio_pin_direction_intialize^0,f,c
  5168   00195E  EFAC  F00C         	goto	u6855
  5169   001962  503F               	movf	(??_gpio_pin_direction_intialize+1)^0,w,c
  5170   001964  0AFF               	xorlw	255
  5171   001966  6E40               	movwf	(??_gpio_pin_direction_intialize+2)^0,c
  5172   001968  503D               	movf	gpio_pin_direction_intialize@__pin_t^0,w,c
  5173   00196A  6ED9               	movwf	fsr2l,c
  5174   00196C  6ADA               	clrf	fsr2h,c
  5175   00196E  50DF               	movf	223,w,c
  5176   001970  0B07               	andlw	7
  5177   001972  0D02               	mullw	2
  5178   001974  50F3               	movf	243,w,c
  5179   001976  0FD6               	addlw	low _tris_registers
  5180   001978  6ED9               	movwf	fsr2l,c
  5181   00197A  6ADA               	clrf	fsr2h,c
  5182   00197C  CFDE F041          	movff	postinc2,??_gpio_pin_direction_intialize+3
  5183   001980  CFDD F042          	movff	postdec2,??_gpio_pin_direction_intialize+4
  5184   001984  C041  FFD9         	movff	??_gpio_pin_direction_intialize+3,fsr2l
  5185   001988  C042  FFDA         	movff	??_gpio_pin_direction_intialize+4,fsr2h
  5186   00198C  5040               	movf	(??_gpio_pin_direction_intialize+2)^0,w,c
  5187   00198E  16DF               	andwf	indf2,f,c
  5188                           
  5189                           ;MCAL_Layer/GPIO/hal_gpio.c: 34:             break;
  5190   001990  EF12  F00D         	goto	l7665
  5191   001994                     l7659:
  5192                           
  5193                           ;MCAL_Layer/GPIO/hal_gpio.c: 36:             (*tris_registers[__pin_t ->port] |= ( (uint
      +                          8) 1 << __pin_t ->pin ));
  5194   001994  503D               	movf	gpio_pin_direction_intialize@__pin_t^0,w,c
  5195   001996  6ED9               	movwf	fsr2l,c
  5196   001998  6ADA               	clrf	fsr2h,c
  5197   00199A  30DF               	rrcf	223,w,c
  5198   00199C  32E8               	rrcf	wreg,f,c
  5199   00199E  32E8               	rrcf	wreg,f,c
  5200   0019A0  0B07               	andlw	7
  5201   0019A2  6E3E               	movwf	??_gpio_pin_direction_intialize^0,c
  5202   0019A4  0E01               	movlw	1
  5203   0019A6  6E3F               	movwf	(??_gpio_pin_direction_intialize+1)^0,c
  5204   0019A8  2A3E               	incf	??_gpio_pin_direction_intialize^0,f,c
  5205   0019AA  EFD9  F00C         	goto	u6864
  5206   0019AE                     u6865:
  5207   0019AE  90D8               	bcf	status,0,c
  5208   0019B0  363F               	rlcf	(??_gpio_pin_direction_intialize+1)^0,f,c
  5209   0019B2                     u6864:
  5210   0019B2  2E3E               	decfsz	??_gpio_pin_direction_intialize^0,f,c
  5211   0019B4  EFD7  F00C         	goto	u6865
  5212   0019B8  503D               	movf	gpio_pin_direction_intialize@__pin_t^0,w,c
  5213   0019BA  6ED9               	movwf	fsr2l,c
  5214   0019BC  6ADA               	clrf	fsr2h,c
  5215   0019BE  50DF               	movf	223,w,c
  5216   0019C0  0B07               	andlw	7
  5217   0019C2  0D02               	mullw	2
  5218   0019C4  50F3               	movf	243,w,c
  5219   0019C6  0FD6               	addlw	low _tris_registers
  5220   0019C8  6ED9               	movwf	fsr2l,c
  5221   0019CA  6ADA               	clrf	fsr2h,c
  5222   0019CC  CFDE F040          	movff	postinc2,??_gpio_pin_direction_intialize+2
  5223   0019D0  CFDD F041          	movff	postdec2,??_gpio_pin_direction_intialize+3
  5224   0019D4  C040  FFD9         	movff	??_gpio_pin_direction_intialize+2,fsr2l
  5225   0019D8  C041  FFDA         	movff	??_gpio_pin_direction_intialize+3,fsr2h
  5226   0019DC  503F               	movf	(??_gpio_pin_direction_intialize+1)^0,w,c
  5227   0019DE  12DF               	iorwf	indf2,f,c
  5228                           
  5229                           ;MCAL_Layer/GPIO/hal_gpio.c: 37:             break;
  5230   0019E0  EF12  F00D         	goto	l7665
  5231   0019E4                     l7663:
  5232   0019E4  503D               	movf	gpio_pin_direction_intialize@__pin_t^0,w,c
  5233   0019E6  6ED9               	movwf	fsr2l,c
  5234   0019E8  6ADA               	clrf	fsr2h,c
  5235   0019EA  BCDF               	btfsc	indf2,6,c
  5236   0019EC  EFFA  F00C         	goto	u6871
  5237   0019F0  EFFD  F00C         	goto	u6870
  5238   0019F4                     u6871:
  5239   0019F4  0E01               	movlw	1
  5240   0019F6  EFFE  F00C         	goto	u6880
  5241   0019FA                     u6870:
  5242   0019FA  0E00               	movlw	0
  5243   0019FC                     u6880:
  5244   0019FC  6E3E               	movwf	??_gpio_pin_direction_intialize^0,c
  5245   0019FE  6A3F               	clrf	(??_gpio_pin_direction_intialize+1)^0,c
  5246                           
  5247                           ; Switch on 2 bytes has been partitioned into a top level switch of size 1, and 1 sub-sw
      +                          itches
  5248                           ; Switch size 1, requested type "simple"
  5249                           ; Number of cases is 1, Range of values is 0 to 0
  5250                           ; switch strategies available:
  5251                           ; Name         Instructions Cycles
  5252                           ; simple_byte            4     3 (average)
  5253                           ;	Chosen strategy is simple_byte
  5254   001A00  503F               	movf	(??_gpio_pin_direction_intialize+1)^0,w,c
  5255   001A02  0A00               	xorlw	0	; case 0
  5256   001A04  B4D8               	btfsc	status,2,c
  5257   001A06  EF07  F00D         	goto	l8885
  5258   001A0A  EF9B  F00C         	goto	l7655
  5259   001A0E                     l8885:
  5260                           
  5261                           ; Switch size 1, requested type "simple"
  5262                           ; Number of cases is 2, Range of values is 0 to 1
  5263                           ; switch strategies available:
  5264                           ; Name         Instructions Cycles
  5265                           ; simple_byte            7     4 (average)
  5266                           ;	Chosen strategy is simple_byte
  5267   001A0E  503E               	movf	??_gpio_pin_direction_intialize^0,w,c
  5268   001A10  0A00               	xorlw	0	; case 0
  5269   001A12  B4D8               	btfsc	status,2,c
  5270   001A14  EF9F  F00C         	goto	l7657
  5271   001A18  0A01               	xorlw	1	; case 1
  5272   001A1A  B4D8               	btfsc	status,2,c
  5273   001A1C  EFCA  F00C         	goto	l7659
  5274   001A20  EF9B  F00C         	goto	l7655
  5275   001A24                     l7665:
  5276                           
  5277                           ;MCAL_Layer/GPIO/hal_gpio.c: 44:     return ret;
  5278   001A24  5043               	movf	gpio_pin_direction_intialize@ret^0,w,c
  5279   001A26  0012               	return		;funcret
  5280   001A28                     __end_of_gpio_pin_direction_intialize:
  5281                           	callstack 0
  5282                           
  5283 ;; *************** function _EEPROM_Write_Data *****************
  5284 ;; Defined at:
  5285 ;;		line 11 in file "MCAL_Layer/EEPROM/hal_eeprom.c"
  5286 ;; Parameters:    Size  Location     Type
  5287 ;;  S_Add           2    1[COMRAM] unsigned short 
  5288 ;;  ddata           1    3[COMRAM] unsigned char 
  5289 ;; Auto vars:     Size  Location     Type
  5290 ;;  Global_Inter    1    4[COMRAM] unsigned char 
  5291 ;;  ret             1    0        unsigned char 
  5292 ;; Return value:  Size  Location     Type
  5293 ;;                  1    wreg      unsigned char 
  5294 ;; Registers used:
  5295 ;;		wreg, status,2, status,0, cstack
  5296 ;; Tracked objects:
  5297 ;;		On entry : 0/0
  5298 ;;		On exit  : 0/0
  5299 ;;		Unchanged: 0/0
  5300 ;; Data sizes:     COMRAM   BANK0   BANK1   BANK2   BANK3   BANK4   BANK5   BANK6   BANK7   BANK8   BANK9  BANK10  BANK1
      +1  BANK12  BANK13  BANK14  BANK15
  5301 ;;      Params:         3       0       0       0       0       0       0       0       0       0       0       0       
      +0       0       0       0       0
  5302 ;;      Locals:         1       0       0       0       0       0       0       0       0       0       0       0       
      +0       0       0       0       0
  5303 ;;      Temps:          0       0       0       0       0       0       0       0       0       0       0       0       
      +0       0       0       0       0
  5304 ;;      Totals:         4       0       0       0       0       0       0       0       0       0       0       0       
      +0       0       0       0       0
  5305 ;;Total ram usage:        4 bytes
  5306 ;; Hardware stack levels used: 1
  5307 ;; Hardware stack levels required when called: 3
  5308 ;; This function calls:
  5309 ;;		_Wait_to_Cycle
  5310 ;; This function is called by:
  5311 ;;		_main
  5312 ;; This function uses a non-reentrant model
  5313 ;;
  5314                           
  5315                           	psect	text33
  5316   002668                     __ptext33:
  5317                           	callstack 0
  5318   002668                     _EEPROM_Write_Data:
  5319                           	callstack 27
  5320   002668                     
  5321                           ;MCAL_Layer/EEPROM/hal_eeprom.c: 14:     uint8 Global_Interrupt_Statue = INTCONbits.GIE 
      +                          ;
  5322   002668  0E00               	movlw	0
  5323   00266A  BEF2               	btfsc	242,7,c	;volatile
  5324   00266C  0E01               	movlw	1
  5325   00266E  6E40               	movwf	EEPROM_Write_Data@Global_Interrupt_Statue^0,c
  5326   002670                     
  5327                           ;MCAL_Layer/EEPROM/hal_eeprom.c: 17:     EEADRH = (uint8)((S_Add >> 8)&0x03);
  5328   002670  503E               	movf	(EEPROM_Write_Data@S_Add+1)^0,w,c
  5329   002672  0B03               	andlw	3
  5330   002674  6EAA               	movwf	170,c	;volatile
  5331   002676                     
  5332                           ;MCAL_Layer/EEPROM/hal_eeprom.c: 18:     EEADR = (uint8)(S_Add & 0xFF);
  5333   002676  C03D  FFA9         	movff	EEPROM_Write_Data@S_Add,4009	;volatile
  5334   00267A                     
  5335                           ;MCAL_Layer/EEPROM/hal_eeprom.c: 21:      EECON2 = 0x55 ;
  5336   00267A  0E55               	movlw	85
  5337   00267C  6EA7               	movwf	167,c	;volsfr
  5338   00267E                     
  5339                           ;MCAL_Layer/EEPROM/hal_eeprom.c: 22:      EECON2 = 0xAA ;
  5340   00267E  0EAA               	movlw	170
  5341   002680  6EA7               	movwf	167,c	;volsfr
  5342   002682                     
  5343                           ;MCAL_Layer/EEPROM/hal_eeprom.c: 24:       EEDATA = ddata ;
  5344   002682  C03F  FFA8         	movff	EEPROM_Write_Data@ddata,4008	;volatile
  5345   002686                     
  5346                           ;MCAL_Layer/EEPROM/hal_eeprom.c: 26:      EECON1bits.WREN = 1;
  5347   002686  84A6               	bsf	166,2,c	;volsfr
  5348   002688                     
  5349                           ;MCAL_Layer/EEPROM/hal_eeprom.c: 28:      EECON1bits.EEPGD = 0 ;
  5350   002688  9EA6               	bcf	166,7,c	;volsfr
  5351   00268A                     
  5352                           ;MCAL_Layer/EEPROM/hal_eeprom.c: 30:      EECON1bits.CFGS = 0 ;
  5353   00268A  9CA6               	bcf	166,6,c	;volsfr
  5354   00268C                     
  5355                           ;MCAL_Layer/EEPROM/hal_eeprom.c: 32:      INTCONbits.GIE = 0 ;
  5356   00268C  9EF2               	bcf	242,7,c	;volatile
  5357   00268E                     
  5358                           ;MCAL_Layer/EEPROM/hal_eeprom.c: 33:      EECON1bits.WR =1 ;
  5359   00268E  82A6               	bsf	166,1,c	;volsfr
  5360   002690                     
  5361                           ;MCAL_Layer/EEPROM/hal_eeprom.c: 35:      Wait_to_Cycle();
  5362   002690  EC6C  F014         	call	_Wait_to_Cycle	;wreg free
  5363   002694                     
  5364                           ;MCAL_Layer/EEPROM/hal_eeprom.c: 38:     EECON1bits.WREN = 0;
  5365   002694  94A6               	bcf	166,2,c	;volsfr
  5366   002696                     
  5367                           ;MCAL_Layer/EEPROM/hal_eeprom.c: 40:      INTCONbits.GIE =Global_Interrupt_Statue ;
  5368   002696  B040               	btfsc	EEPROM_Write_Data@Global_Interrupt_Statue^0,0,c
  5369   002698  D002               	bra	u7465
  5370   00269A  9EF2               	bcf	242,7,c	;volatile
  5371   00269C  D001               	bra	u7466
  5372   00269E                     u7465:
  5373   00269E  8EF2               	bsf	242,7,c	;volatile
  5374   0026A0                     u7466:
  5375   0026A0  0012               	return		;funcret
  5376   0026A2                     __end_of_EEPROM_Write_Data:
  5377                           	callstack 0
  5378                           
  5379 ;; *************** function _Wait_to_Cycle *****************
  5380 ;; Defined at:
  5381 ;;		line 4 in file "MCAL_Layer/EEPROM/hal_eeprom.c"
  5382 ;; Parameters:    Size  Location     Type
  5383 ;;		None
  5384 ;; Auto vars:     Size  Location     Type
  5385 ;;		None
  5386 ;; Return value:  Size  Location     Type
  5387 ;;                  1    wreg      void 
  5388 ;; Registers used:
  5389 ;;		None
  5390 ;; Tracked objects:
  5391 ;;		On entry : 0/0
  5392 ;;		On exit  : 0/0
  5393 ;;		Unchanged: 0/0
  5394 ;; Data sizes:     COMRAM   BANK0   BANK1   BANK2   BANK3   BANK4   BANK5   BANK6   BANK7   BANK8   BANK9  BANK10  BANK1
      +1  BANK12  BANK13  BANK14  BANK15
  5395 ;;      Params:         0       0       0       0       0       0       0       0       0       0       0       0       
      +0       0       0       0       0
  5396 ;;      Locals:         0       0       0       0       0       0       0       0       0       0       0       0       
      +0       0       0       0       0
  5397 ;;      Temps:          0       0       0       0       0       0       0       0       0       0       0       0       
      +0       0       0       0       0
  5398 ;;      Totals:         0       0       0       0       0       0       0       0       0       0       0       0       
      +0       0       0       0       0
  5399 ;;Total ram usage:        0 bytes
  5400 ;; Hardware stack levels used: 1
  5401 ;; Hardware stack levels required when called: 2
  5402 ;; This function calls:
  5403 ;;		Nothing
  5404 ;; This function is called by:
  5405 ;;		_EEPROM_Write_Data
  5406 ;; This function uses a non-reentrant model
  5407 ;;
  5408                           
  5409                           	psect	text34
  5410   0028D8                     __ptext34:
  5411                           	callstack 0
  5412   0028D8                     _Wait_to_Cycle:
  5413                           	callstack 27
  5414   0028D8                     l614:
  5415                           
  5416                           ;MCAL_Layer/EEPROM/hal_eeprom.c: 6:     while(EECON1bits.WR)
  5417   0028D8  B2A6               	btfsc	166,1,c	;volsfr
  5418   0028DA  EF71  F014         	goto	u7281
  5419   0028DE  EF73  F014         	goto	u7280
  5420   0028E2                     u7281:
  5421   0028E2  EF6C  F014         	goto	l614
  5422   0028E6                     u7280:
  5423   0028E6  0012               	return		;funcret
  5424   0028E8                     __end_of_Wait_to_Cycle:
  5425                           	callstack 0
  5426                           
  5427 ;; *************** function _EEPROM_Read_Data *****************
  5428 ;; Defined at:
  5429 ;;		line 43 in file "MCAL_Layer/EEPROM/hal_eeprom.c"
  5430 ;; Parameters:    Size  Location     Type
  5431 ;;  S_Add           2    1[COMRAM] unsigned short 
  5432 ;;  ddata           1    3[COMRAM] PTR unsigned char 
  5433 ;;		 -> num_of_incor(1), 
  5434 ;; Auto vars:     Size  Location     Type
  5435 ;;  ret             1    0        unsigned char 
  5436 ;; Return value:  Size  Location     Type
  5437 ;;                  1    wreg      unsigned char 
  5438 ;; Registers used:
  5439 ;;		wreg, fsr2l, fsr2h, status,2, status,0
  5440 ;; Tracked objects:
  5441 ;;		On entry : 0/0
  5442 ;;		On exit  : 0/0
  5443 ;;		Unchanged: 0/0
  5444 ;; Data sizes:     COMRAM   BANK0   BANK1   BANK2   BANK3   BANK4   BANK5   BANK6   BANK7   BANK8   BANK9  BANK10  BANK1
      +1  BANK12  BANK13  BANK14  BANK15
  5445 ;;      Params:         3       0       0       0       0       0       0       0       0       0       0       0       
      +0       0       0       0       0
  5446 ;;      Locals:         0       0       0       0       0       0       0       0       0       0       0       0       
      +0       0       0       0       0
  5447 ;;      Temps:          0       0       0       0       0       0       0       0       0       0       0       0       
      +0       0       0       0       0
  5448 ;;      Totals:         3       0       0       0       0       0       0       0       0       0       0       0       
      +0       0       0       0       0
  5449 ;;Total ram usage:        3 bytes
  5450 ;; Hardware stack levels used: 1
  5451 ;; Hardware stack levels required when called: 2
  5452 ;; This function calls:
  5453 ;;		Nothing
  5454 ;; This function is called by:
  5455 ;;		_main
  5456 ;; This function uses a non-reentrant model
  5457 ;;
  5458                           
  5459                           	psect	text35
  5460   0026A2                     __ptext35:
  5461                           	callstack 0
  5462   0026A2                     _EEPROM_Read_Data:
  5463                           	callstack 28
  5464   0026A2                     
  5465                           ;MCAL_Layer/EEPROM/hal_eeprom.c: 46:     if(((void*)0) == ddata){
  5466   0026A2  503F               	movf	EEPROM_Read_Data@ddata^0,w,c
  5467   0026A4  A4D8               	btfss	status,2,c
  5468   0026A6  EF57  F013         	goto	u7471
  5469   0026AA  EF59  F013         	goto	u7470
  5470   0026AE                     u7471:
  5471   0026AE  EF5B  F013         	goto	l623
  5472   0026B2                     u7470:
  5473   0026B2                     
  5474                           ;MCAL_Layer/EEPROM/hal_eeprom.c: 48:     }
  5475   0026B2  EF6B  F013         	goto	l625
  5476   0026B6                     l623:
  5477                           
  5478                           ;MCAL_Layer/EEPROM/hal_eeprom.c: 51:      EEADR = (uint8)(S_Add & 0xFF);
  5479   0026B6  C03D  FFA9         	movff	EEPROM_Read_Data@S_Add,4009	;volatile
  5480   0026BA                     
  5481                           ;MCAL_Layer/EEPROM/hal_eeprom.c: 52:      EEADRH = (uint8)((S_Add>>8)&0x03);
  5482   0026BA  503E               	movf	(EEPROM_Read_Data@S_Add+1)^0,w,c
  5483   0026BC  0B03               	andlw	3
  5484   0026BE  6EAA               	movwf	170,c	;volatile
  5485   0026C0                     
  5486                           ;MCAL_Layer/EEPROM/hal_eeprom.c: 54:        INTCONbits.GIE = 0 ;
  5487   0026C0  9EF2               	bcf	242,7,c	;volatile
  5488   0026C2                     
  5489                           ;MCAL_Layer/EEPROM/hal_eeprom.c: 55:       EECON1bits.EEPGD = 0 ;
  5490   0026C2  9EA6               	bcf	166,7,c	;volsfr
  5491   0026C4                     
  5492                           ;MCAL_Layer/EEPROM/hal_eeprom.c: 56:       EECON1bits.CFGS = 0 ;
  5493   0026C4  9CA6               	bcf	166,6,c	;volsfr
  5494   0026C6                     
  5495                           ;MCAL_Layer/EEPROM/hal_eeprom.c: 57:          EECON1bits.RD = 1;
  5496   0026C6  80A6               	bsf	166,0,c	;volsfr
  5497   0026C8                     
  5498                           ;MCAL_Layer/EEPROM/hal_eeprom.c: 58:          __nop();
  5499   0026C8  0000               	nop	
  5500   0026CA                     
  5501                           ;MCAL_Layer/EEPROM/hal_eeprom.c: 59:                   __nop();
  5502   0026CA  0000               	nop	
  5503   0026CC                     
  5504                           ;MCAL_Layer/EEPROM/hal_eeprom.c: 60:          *ddata = EEDATA ;
  5505   0026CC  503F               	movf	EEPROM_Read_Data@ddata^0,w,c
  5506   0026CE  6ED9               	movwf	fsr2l,c
  5507   0026D0  6ADA               	clrf	fsr2h,c
  5508   0026D2  CFA8 FFDF          	movff	4008,indf2	;volatile
  5509   0026D6                     l625:
  5510   0026D6  0012               	return		;funcret
  5511   0026D8                     __end_of_EEPROM_Read_Data:
  5512                           	callstack 0
  5513                           
  5514 ;; *************** function _InterruptManager *****************
  5515 ;; Defined at:
  5516 ;;		line 104 in file "MCAL_Layer/Interrupt/mcal_interrupt_manager.c"
  5517 ;; Parameters:    Size  Location     Type
  5518 ;;		None
  5519 ;; Auto vars:     Size  Location     Type
  5520 ;;		None
  5521 ;; Return value:  Size  Location     Type
  5522 ;;                  1    wreg      void 
  5523 ;; Registers used:
  5524 ;;		wreg, status,2, status,0, cstack
  5525 ;; Tracked objects:
  5526 ;;		On entry : 0/0
  5527 ;;		On exit  : 0/0
  5528 ;;		Unchanged: 0/0
  5529 ;; Data sizes:     COMRAM   BANK0   BANK1   BANK2   BANK3   BANK4   BANK5   BANK6   BANK7   BANK8   BANK9  BANK10  BANK1
      +1  BANK12  BANK13  BANK14  BANK15
  5530 ;;      Params:         0       0       0       0       0       0       0       0       0       0       0       0       
      +0       0       0       0       0
  5531 ;;      Locals:         0       0       0       0       0       0       0       0       0       0       0       0       
      +0       0       0       0       0
  5532 ;;      Temps:          0       0       0       0       0       0       0       0       0       0       0       0       
      +0       0       0       0       0
  5533 ;;      Totals:         0       0       0       0       0       0       0       0       0       0       0       0       
      +0       0       0       0       0
  5534 ;;Total ram usage:        0 bytes
  5535 ;; Hardware stack levels used: 1
  5536 ;; Hardware stack levels required when called: 1
  5537 ;; This function calls:
  5538 ;;		_ADC_ISR
  5539 ;;		_CCP1_ISR
  5540 ;;		_CCP2_ISR
  5541 ;;		_EUSART_RX_ASY_ISR
  5542 ;;		_EUSART_TX_ASY_ISR
  5543 ;;		_I2C_BUS_COLLISION_ISR
  5544 ;;		_I2C_MODULE_TR_ISR
  5545 ;;		_INT0_ISR
  5546 ;;		_INT1_ISR
  5547 ;;		_INT2_ISR
  5548 ;;		_MSSP_Spi_ISR
  5549 ;;		_RB4_ISR
  5550 ;;		_RB5_ISR
  5551 ;;		_RB6_ISR
  5552 ;;		_RB7_ISR
  5553 ;;		_TMR0_ISR
  5554 ;;		_TMR1_ISR
  5555 ;;		_TMR2_ISR
  5556 ;;		_TMR3_ISR
  5557 ;; This function is called by:
  5558 ;;		Interrupt level 2
  5559 ;; This function uses a non-reentrant model
  5560 ;;
  5561                           
  5562                           	psect	intcode
  5563   000008                     __pintcode:
  5564                           	callstack 0
  5565   000008                     _InterruptManager:
  5566                           	callstack 23
  5567                           
  5568                           ;incstack = 0
  5569   000008  827B               	bsf	int$flags,1,c	;set compiler interrupt flag (level 2)
  5570   00000A  ED2E  F008         	call	int_func,f	;refresh shadow registers
  5571                           
  5572                           	psect	intcode_body
  5573   00105C                     __pintcode_body:
  5574                           	callstack 23
  5575   00105C                     int_func:
  5576                           	callstack 23
  5577   00105C  0006               	pop		; remove dummy address from shadow register refresh
  5578   00105E                     
  5579                           ;MCAL_Layer/Interrupt/mcal_interrupt_manager.c: 106:     if((INTCONbits.INT0IE == 1) && 
      +                          (INTCONbits.INT0IF == 1)){
  5580   00105E  A8F2               	btfss	242,4,c	;volatile
  5581   001060  EF34  F008         	goto	i2u547_41
  5582   001064  EF36  F008         	goto	i2u547_40
  5583   001068                     i2u547_41:
  5584   001068  EF3F  F008         	goto	i2l1181
  5585   00106C                     i2u547_40:
  5586   00106C  A2F2               	btfss	242,1,c	;volatile
  5587   00106E  EF3B  F008         	goto	i2u548_41
  5588   001072  EF3D  F008         	goto	i2u548_40
  5589   001076                     i2u548_41:
  5590   001076  EF3F  F008         	goto	i2l1181
  5591   00107A                     i2u548_40:
  5592   00107A                     
  5593                           ;MCAL_Layer/Interrupt/mcal_interrupt_manager.c: 107:         INT0_ISR();
  5594   00107A  EC90  F014         	call	_INT0_ISR	;wreg free
  5595   00107E                     i2l1181:
  5596                           
  5597                           ;MCAL_Layer/Interrupt/mcal_interrupt_manager.c: 112:     if((INTCON3bits.INT1E == 1) && 
      +                          (INTCON3bits.INT1F == 1)){
  5598   00107E  A6F0               	btfss	240,3,c	;volatile
  5599   001080  EF44  F008         	goto	i2u549_41
  5600   001084  EF46  F008         	goto	i2u549_40
  5601   001088                     i2u549_41:
  5602   001088  EF4F  F008         	goto	i2l1183
  5603   00108C                     i2u549_40:
  5604   00108C  A0F0               	btfss	240,0,c	;volatile
  5605   00108E  EF4B  F008         	goto	i2u550_41
  5606   001092  EF4D  F008         	goto	i2u550_40
  5607   001096                     i2u550_41:
  5608   001096  EF4F  F008         	goto	i2l1183
  5609   00109A                     i2u550_40:
  5610   00109A                     
  5611                           ;MCAL_Layer/Interrupt/mcal_interrupt_manager.c: 113:         INT1_ISR();
  5612   00109A  EC8E  F014         	call	_INT1_ISR	;wreg free
  5613   00109E                     i2l1183:
  5614                           
  5615                           ;MCAL_Layer/Interrupt/mcal_interrupt_manager.c: 118:     if((INTCON3bits.INT2IE == 1) &&
      +                           (INTCON3bits.INT2IF == 1)){
  5616   00109E  A8F0               	btfss	240,4,c	;volatile
  5617   0010A0  EF54  F008         	goto	i2u551_41
  5618   0010A4  EF56  F008         	goto	i2u551_40
  5619   0010A8                     i2u551_41:
  5620   0010A8  EF5F  F008         	goto	i2l1185
  5621   0010AC                     i2u551_40:
  5622   0010AC  A2F0               	btfss	240,1,c	;volatile
  5623   0010AE  EF5B  F008         	goto	i2u552_41
  5624   0010B2  EF5D  F008         	goto	i2u552_40
  5625   0010B6                     i2u552_41:
  5626   0010B6  EF5F  F008         	goto	i2l1185
  5627   0010BA                     i2u552_40:
  5628   0010BA                     
  5629                           ;MCAL_Layer/Interrupt/mcal_interrupt_manager.c: 119:         INT2_ISR();
  5630   0010BA  EC8C  F014         	call	_INT2_ISR	;wreg free
  5631   0010BE                     i2l1185:
  5632                           
  5633                           ;MCAL_Layer/Interrupt/mcal_interrupt_manager.c: 127:     if((INTCONbits.RBIE == 1) && (I
      +                          NTCONbits.RBIF == 1) &&
  5634   0010BE  A6F2               	btfss	242,3,c	;volatile
  5635   0010C0  EF64  F008         	goto	i2u553_41
  5636   0010C4  EF66  F008         	goto	i2u553_40
  5637   0010C8                     i2u553_41:
  5638   0010C8  EF81  F008         	goto	i2l1187
  5639   0010CC                     i2u553_40:
  5640   0010CC  A0F2               	btfss	242,0,c	;volatile
  5641   0010CE  EF6B  F008         	goto	i2u554_41
  5642   0010D2  EF6D  F008         	goto	i2u554_40
  5643   0010D6                     i2u554_41:
  5644   0010D6  EF81  F008         	goto	i2l1187
  5645   0010DA                     i2u554_40:
  5646   0010DA  A881               	btfss	129,4,c	;volatile
  5647   0010DC  EF72  F008         	goto	i2u555_41
  5648   0010E0  EF74  F008         	goto	i2u555_40
  5649   0010E4                     i2u555_41:
  5650   0010E4  EF81  F008         	goto	i2l1187
  5651   0010E8                     i2u555_40:
  5652   0010E8  0475               	decf	_RB4_Flag^0,w,c	;volatile
  5653   0010EA  A4D8               	btfss	status,2,c
  5654   0010EC  EF7A  F008         	goto	i2u556_41
  5655   0010F0  EF7C  F008         	goto	i2u556_40
  5656   0010F4                     i2u556_41:
  5657   0010F4  EF81  F008         	goto	i2l1187
  5658   0010F8                     i2u556_40:
  5659   0010F8                     
  5660                           ;MCAL_Layer/Interrupt/mcal_interrupt_manager.c: 128:             (PORTBbits.RB4 == LOGIC
      +                          _HIGH) && (RB4_Flag == 1)){;MCAL_Layer/Interrupt/mcal_interrupt_manager.c: 129:         
      +                           RB4_Flag = 0;
  5661   0010F8  0E00               	movlw	0
  5662   0010FA  6E75               	movwf	_RB4_Flag^0,c	;volatile
  5663   0010FC                     
  5664                           ;MCAL_Layer/Interrupt/mcal_interrupt_manager.c: 130:          RB4_ISR(0);
  5665   0010FC  0E00               	movlw	0
  5666   0010FE  EC57  F014         	call	_RB4_ISR
  5667   001102                     i2l1187:
  5668                           
  5669                           ;MCAL_Layer/Interrupt/mcal_interrupt_manager.c: 135:     if((INTCONbits.RBIE == 1) && (I
      +                          NTCONbits.RBIF == 1) &&
  5670   001102  A6F2               	btfss	242,3,c	;volatile
  5671   001104  EF86  F008         	goto	i2u557_41
  5672   001108  EF88  F008         	goto	i2u557_40
  5673   00110C                     i2u557_41:
  5674   00110C  EFA3  F008         	goto	i2l1189
  5675   001110                     i2u557_40:
  5676   001110  A0F2               	btfss	242,0,c	;volatile
  5677   001112  EF8D  F008         	goto	i2u558_41
  5678   001116  EF8F  F008         	goto	i2u558_40
  5679   00111A                     i2u558_41:
  5680   00111A  EFA3  F008         	goto	i2l1189
  5681   00111E                     i2u558_40:
  5682   00111E  B881               	btfsc	129,4,c	;volatile
  5683   001120  EF94  F008         	goto	i2u559_41
  5684   001124  EF96  F008         	goto	i2u559_40
  5685   001128                     i2u559_41:
  5686   001128  EFA3  F008         	goto	i2l1189
  5687   00112C                     i2u559_40:
  5688   00112C  5075               	movf	_RB4_Flag^0,w,c	;volatile
  5689   00112E  A4D8               	btfss	status,2,c
  5690   001130  EF9C  F008         	goto	i2u560_41
  5691   001134  EF9E  F008         	goto	i2u560_40
  5692   001138                     i2u560_41:
  5693   001138  EFA3  F008         	goto	i2l1189
  5694   00113C                     i2u560_40:
  5695   00113C                     
  5696                           ;MCAL_Layer/Interrupt/mcal_interrupt_manager.c: 136:             (PORTBbits.RB4 == LOGIC
      +                          _LOW) && (RB4_Flag == 0)){;MCAL_Layer/Interrupt/mcal_interrupt_manager.c: 137:          
      +                          RB4_Flag = 1;
  5697   00113C  0E01               	movlw	1
  5698   00113E  6E75               	movwf	_RB4_Flag^0,c	;volatile
  5699   001140                     
  5700                           ;MCAL_Layer/Interrupt/mcal_interrupt_manager.c: 138:          RB4_ISR(1);
  5701   001140  0E01               	movlw	1
  5702   001142  EC57  F014         	call	_RB4_ISR
  5703   001146                     i2l1189:
  5704                           
  5705                           ;MCAL_Layer/Interrupt/mcal_interrupt_manager.c: 143:     if((INTCONbits.RBIE == 1) && (I
      +                          NTCONbits.RBIF == 1) &&
  5706   001146  A6F2               	btfss	242,3,c	;volatile
  5707   001148  EFA8  F008         	goto	i2u561_41
  5708   00114C  EFAA  F008         	goto	i2u561_40
  5709   001150                     i2u561_41:
  5710   001150  EFC5  F008         	goto	i2l1191
  5711   001154                     i2u561_40:
  5712   001154  A0F2               	btfss	242,0,c	;volatile
  5713   001156  EFAF  F008         	goto	i2u562_41
  5714   00115A  EFB1  F008         	goto	i2u562_40
  5715   00115E                     i2u562_41:
  5716   00115E  EFC5  F008         	goto	i2l1191
  5717   001162                     i2u562_40:
  5718   001162  AA81               	btfss	129,5,c	;volatile
  5719   001164  EFB6  F008         	goto	i2u563_41
  5720   001168  EFB8  F008         	goto	i2u563_40
  5721   00116C                     i2u563_41:
  5722   00116C  EFC5  F008         	goto	i2l1191
  5723   001170                     i2u563_40:
  5724   001170  0474               	decf	_RB5_Flag^0,w,c	;volatile
  5725   001172  A4D8               	btfss	status,2,c
  5726   001174  EFBE  F008         	goto	i2u564_41
  5727   001178  EFC0  F008         	goto	i2u564_40
  5728   00117C                     i2u564_41:
  5729   00117C  EFC5  F008         	goto	i2l1191
  5730   001180                     i2u564_40:
  5731   001180                     
  5732                           ;MCAL_Layer/Interrupt/mcal_interrupt_manager.c: 144:             (PORTBbits.RB5 == LOGIC
      +                          _HIGH) && (RB5_Flag == 1)){;MCAL_Layer/Interrupt/mcal_interrupt_manager.c: 145:         
      +                           RB5_Flag = 0;
  5733   001180  0E00               	movlw	0
  5734   001182  6E74               	movwf	_RB5_Flag^0,c	;volatile
  5735   001184                     
  5736                           ;MCAL_Layer/Interrupt/mcal_interrupt_manager.c: 146:          RB5_ISR(0);
  5737   001184  0E00               	movlw	0
  5738   001186  EC4A  F014         	call	_RB5_ISR
  5739   00118A                     i2l1191:
  5740                           
  5741                           ;MCAL_Layer/Interrupt/mcal_interrupt_manager.c: 151:      if((INTCONbits.RBIE == 1) && (
      +                          INTCONbits.RBIF == 1) &&
  5742   00118A  A6F2               	btfss	242,3,c	;volatile
  5743   00118C  EFCA  F008         	goto	i2u565_41
  5744   001190  EFCC  F008         	goto	i2u565_40
  5745   001194                     i2u565_41:
  5746   001194  EFE7  F008         	goto	i2l1193
  5747   001198                     i2u565_40:
  5748   001198  A0F2               	btfss	242,0,c	;volatile
  5749   00119A  EFD1  F008         	goto	i2u566_41
  5750   00119E  EFD3  F008         	goto	i2u566_40
  5751   0011A2                     i2u566_41:
  5752   0011A2  EFE7  F008         	goto	i2l1193
  5753   0011A6                     i2u566_40:
  5754   0011A6  BA81               	btfsc	129,5,c	;volatile
  5755   0011A8  EFD8  F008         	goto	i2u567_41
  5756   0011AC  EFDA  F008         	goto	i2u567_40
  5757   0011B0                     i2u567_41:
  5758   0011B0  EFE7  F008         	goto	i2l1193
  5759   0011B4                     i2u567_40:
  5760   0011B4  5074               	movf	_RB5_Flag^0,w,c	;volatile
  5761   0011B6  A4D8               	btfss	status,2,c
  5762   0011B8  EFE0  F008         	goto	i2u568_41
  5763   0011BC  EFE2  F008         	goto	i2u568_40
  5764   0011C0                     i2u568_41:
  5765   0011C0  EFE7  F008         	goto	i2l1193
  5766   0011C4                     i2u568_40:
  5767   0011C4                     
  5768                           ;MCAL_Layer/Interrupt/mcal_interrupt_manager.c: 152:             (PORTBbits.RB5 == LOGIC
      +                          _LOW) && (RB5_Flag == 0)){;MCAL_Layer/Interrupt/mcal_interrupt_manager.c: 153:          
      +                          RB5_Flag = 1;
  5769   0011C4  0E01               	movlw	1
  5770   0011C6  6E74               	movwf	_RB5_Flag^0,c	;volatile
  5771   0011C8                     
  5772                           ;MCAL_Layer/Interrupt/mcal_interrupt_manager.c: 154:          RB5_ISR(1);
  5773   0011C8  0E01               	movlw	1
  5774   0011CA  EC4A  F014         	call	_RB5_ISR
  5775   0011CE                     i2l1193:
  5776                           
  5777                           ;MCAL_Layer/Interrupt/mcal_interrupt_manager.c: 159:     if((INTCONbits.RBIE == 1) && (I
      +                          NTCONbits.RBIF == 1) &&
  5778   0011CE  A6F2               	btfss	242,3,c	;volatile
  5779   0011D0  EFEC  F008         	goto	i2u569_41
  5780   0011D4  EFEE  F008         	goto	i2u569_40
  5781   0011D8                     i2u569_41:
  5782   0011D8  EF09  F009         	goto	i2l1195
  5783   0011DC                     i2u569_40:
  5784   0011DC  A0F2               	btfss	242,0,c	;volatile
  5785   0011DE  EFF3  F008         	goto	i2u570_41
  5786   0011E2  EFF5  F008         	goto	i2u570_40
  5787   0011E6                     i2u570_41:
  5788   0011E6  EF09  F009         	goto	i2l1195
  5789   0011EA                     i2u570_40:
  5790   0011EA  AC81               	btfss	129,6,c	;volatile
  5791   0011EC  EFFA  F008         	goto	i2u571_41
  5792   0011F0  EFFC  F008         	goto	i2u571_40
  5793   0011F4                     i2u571_41:
  5794   0011F4  EF09  F009         	goto	i2l1195
  5795   0011F8                     i2u571_40:
  5796   0011F8  0473               	decf	_RB6_Flag^0,w,c	;volatile
  5797   0011FA  A4D8               	btfss	status,2,c
  5798   0011FC  EF02  F009         	goto	i2u572_41
  5799   001200  EF04  F009         	goto	i2u572_40
  5800   001204                     i2u572_41:
  5801   001204  EF09  F009         	goto	i2l1195
  5802   001208                     i2u572_40:
  5803   001208                     
  5804                           ;MCAL_Layer/Interrupt/mcal_interrupt_manager.c: 160:             (PORTBbits.RB6 == LOGIC
      +                          _HIGH) && (RB6_Flag == 1)){;MCAL_Layer/Interrupt/mcal_interrupt_manager.c: 161:         
      +                           RB6_Flag = 0;
  5805   001208  0E00               	movlw	0
  5806   00120A  6E73               	movwf	_RB6_Flag^0,c	;volatile
  5807   00120C                     
  5808                           ;MCAL_Layer/Interrupt/mcal_interrupt_manager.c: 162:          RB6_ISR(0);
  5809   00120C  0E00               	movlw	0
  5810   00120E  EC3D  F014         	call	_RB6_ISR
  5811   001212                     i2l1195:
  5812                           
  5813                           ;MCAL_Layer/Interrupt/mcal_interrupt_manager.c: 167:      if((INTCONbits.RBIE == 1) && (
      +                          INTCONbits.RBIF == 1) &&
  5814   001212  A6F2               	btfss	242,3,c	;volatile
  5815   001214  EF0E  F009         	goto	i2u573_41
  5816   001218  EF10  F009         	goto	i2u573_40
  5817   00121C                     i2u573_41:
  5818   00121C  EF2B  F009         	goto	i2l1197
  5819   001220                     i2u573_40:
  5820   001220  A0F2               	btfss	242,0,c	;volatile
  5821   001222  EF15  F009         	goto	i2u574_41
  5822   001226  EF17  F009         	goto	i2u574_40
  5823   00122A                     i2u574_41:
  5824   00122A  EF2B  F009         	goto	i2l1197
  5825   00122E                     i2u574_40:
  5826   00122E  BC81               	btfsc	129,6,c	;volatile
  5827   001230  EF1C  F009         	goto	i2u575_41
  5828   001234  EF1E  F009         	goto	i2u575_40
  5829   001238                     i2u575_41:
  5830   001238  EF2B  F009         	goto	i2l1197
  5831   00123C                     i2u575_40:
  5832   00123C  5073               	movf	_RB6_Flag^0,w,c	;volatile
  5833   00123E  A4D8               	btfss	status,2,c
  5834   001240  EF24  F009         	goto	i2u576_41
  5835   001244  EF26  F009         	goto	i2u576_40
  5836   001248                     i2u576_41:
  5837   001248  EF2B  F009         	goto	i2l1197
  5838   00124C                     i2u576_40:
  5839   00124C                     
  5840                           ;MCAL_Layer/Interrupt/mcal_interrupt_manager.c: 168:             (PORTBbits.RB6 ==LOGIC_
      +                          LOW) && (RB6_Flag == 0)){;MCAL_Layer/Interrupt/mcal_interrupt_manager.c: 169:          R
      +                          B6_Flag = 1;
  5841   00124C  0E01               	movlw	1
  5842   00124E  6E73               	movwf	_RB6_Flag^0,c	;volatile
  5843   001250                     
  5844                           ;MCAL_Layer/Interrupt/mcal_interrupt_manager.c: 170:          RB6_ISR(1);
  5845   001250  0E01               	movlw	1
  5846   001252  EC3D  F014         	call	_RB6_ISR
  5847   001256                     i2l1197:
  5848                           
  5849                           ;MCAL_Layer/Interrupt/mcal_interrupt_manager.c: 175:     if((INTCONbits.RBIE == 1) && (I
      +                          NTCONbits.RBIF == 1) &&
  5850   001256  A6F2               	btfss	242,3,c	;volatile
  5851   001258  EF30  F009         	goto	i2u577_41
  5852   00125C  EF32  F009         	goto	i2u577_40
  5853   001260                     i2u577_41:
  5854   001260  EF4D  F009         	goto	i2l1199
  5855   001264                     i2u577_40:
  5856   001264  A0F2               	btfss	242,0,c	;volatile
  5857   001266  EF37  F009         	goto	i2u578_41
  5858   00126A  EF39  F009         	goto	i2u578_40
  5859   00126E                     i2u578_41:
  5860   00126E  EF4D  F009         	goto	i2l1199
  5861   001272                     i2u578_40:
  5862   001272  AE81               	btfss	129,7,c	;volatile
  5863   001274  EF3E  F009         	goto	i2u579_41
  5864   001278  EF40  F009         	goto	i2u579_40
  5865   00127C                     i2u579_41:
  5866   00127C  EF4D  F009         	goto	i2l1199
  5867   001280                     i2u579_40:
  5868   001280  0472               	decf	_RB7_Flag^0,w,c	;volatile
  5869   001282  A4D8               	btfss	status,2,c
  5870   001284  EF46  F009         	goto	i2u580_41
  5871   001288  EF48  F009         	goto	i2u580_40
  5872   00128C                     i2u580_41:
  5873   00128C  EF4D  F009         	goto	i2l1199
  5874   001290                     i2u580_40:
  5875   001290                     
  5876                           ;MCAL_Layer/Interrupt/mcal_interrupt_manager.c: 176:             (PORTBbits.RB7 == LOGIC
      +                          _HIGH) && (RB7_Flag == 1)){;MCAL_Layer/Interrupt/mcal_interrupt_manager.c: 177:         
      +                           RB7_Flag = 0;
  5877   001290  0E00               	movlw	0
  5878   001292  6E72               	movwf	_RB7_Flag^0,c	;volatile
  5879   001294                     
  5880                           ;MCAL_Layer/Interrupt/mcal_interrupt_manager.c: 178:          RB7_ISR(0);
  5881   001294  0E00               	movlw	0
  5882   001296  EC30  F014         	call	_RB7_ISR
  5883   00129A                     i2l1199:
  5884                           
  5885                           ;MCAL_Layer/Interrupt/mcal_interrupt_manager.c: 183:      if((INTCONbits.RBIE == 1) && (
      +                          INTCONbits.RBIF == 1) &&
  5886   00129A  A6F2               	btfss	242,3,c	;volatile
  5887   00129C  EF52  F009         	goto	i2u581_41
  5888   0012A0  EF54  F009         	goto	i2u581_40
  5889   0012A4                     i2u581_41:
  5890   0012A4  EF6F  F009         	goto	i2l1201
  5891   0012A8                     i2u581_40:
  5892   0012A8  A0F2               	btfss	242,0,c	;volatile
  5893   0012AA  EF59  F009         	goto	i2u582_41
  5894   0012AE  EF5B  F009         	goto	i2u582_40
  5895   0012B2                     i2u582_41:
  5896   0012B2  EF6F  F009         	goto	i2l1201
  5897   0012B6                     i2u582_40:
  5898   0012B6  BE81               	btfsc	129,7,c	;volatile
  5899   0012B8  EF60  F009         	goto	i2u583_41
  5900   0012BC  EF62  F009         	goto	i2u583_40
  5901   0012C0                     i2u583_41:
  5902   0012C0  EF6F  F009         	goto	i2l1201
  5903   0012C4                     i2u583_40:
  5904   0012C4  5072               	movf	_RB7_Flag^0,w,c	;volatile
  5905   0012C6  A4D8               	btfss	status,2,c
  5906   0012C8  EF68  F009         	goto	i2u584_41
  5907   0012CC  EF6A  F009         	goto	i2u584_40
  5908   0012D0                     i2u584_41:
  5909   0012D0  EF6F  F009         	goto	i2l1201
  5910   0012D4                     i2u584_40:
  5911   0012D4                     
  5912                           ;MCAL_Layer/Interrupt/mcal_interrupt_manager.c: 184:             (PORTBbits.RB7== LOGIC_
      +                          LOW) && (RB7_Flag == 0)){;MCAL_Layer/Interrupt/mcal_interrupt_manager.c: 185:          R
      +                          B7_Flag = 1;
  5913   0012D4  0E01               	movlw	1
  5914   0012D6  6E72               	movwf	_RB7_Flag^0,c	;volatile
  5915   0012D8                     
  5916                           ;MCAL_Layer/Interrupt/mcal_interrupt_manager.c: 186:          RB7_ISR(1);
  5917   0012D8  0E01               	movlw	1
  5918   0012DA  EC30  F014         	call	_RB7_ISR
  5919   0012DE                     i2l1201:
  5920                           
  5921                           ;MCAL_Layer/Interrupt/mcal_interrupt_manager.c: 194:     if((PIE1bits.ADIE == 1) && (PIR
      +                          1bits.ADIF == 1)){
  5922   0012DE  AC9D               	btfss	157,6,c	;volatile
  5923   0012E0  EF74  F009         	goto	i2u585_41
  5924   0012E4  EF76  F009         	goto	i2u585_40
  5925   0012E8                     i2u585_41:
  5926   0012E8  EF7F  F009         	goto	i2l1203
  5927   0012EC                     i2u585_40:
  5928   0012EC  AC9E               	btfss	158,6,c	;volatile
  5929   0012EE  EF7B  F009         	goto	i2u586_41
  5930   0012F2  EF7D  F009         	goto	i2u586_40
  5931   0012F6                     i2u586_41:
  5932   0012F6  EF7F  F009         	goto	i2l1203
  5933   0012FA                     i2u586_40:
  5934   0012FA                     
  5935                           ;MCAL_Layer/Interrupt/mcal_interrupt_manager.c: 195:        ADC_ISR();
  5936   0012FA  EC9C  F014         	call	_ADC_ISR	;wreg free
  5937   0012FE                     i2l1203:
  5938                           
  5939                           ;MCAL_Layer/Interrupt/mcal_interrupt_manager.c: 201:     if((INTCONbits.TMR0IE == 1) && 
      +                          (INTCONbits.TMR0IF == 1)){
  5940   0012FE  AAF2               	btfss	242,5,c	;volatile
  5941   001300  EF84  F009         	goto	i2u587_41
  5942   001304  EF86  F009         	goto	i2u587_40
  5943   001308                     i2u587_41:
  5944   001308  EF8F  F009         	goto	i2l1205
  5945   00130C                     i2u587_40:
  5946   00130C  A4F2               	btfss	242,2,c	;volatile
  5947   00130E  EF8B  F009         	goto	i2u588_41
  5948   001312  EF8D  F009         	goto	i2u588_40
  5949   001316                     i2u588_41:
  5950   001316  EF8F  F009         	goto	i2l1205
  5951   00131A                     i2u588_40:
  5952   00131A                     
  5953                           ;MCAL_Layer/Interrupt/mcal_interrupt_manager.c: 202:         TMR0_ISR();
  5954   00131A  EC80  F014         	call	_TMR0_ISR	;wreg free
  5955   00131E                     i2l1205:
  5956                           
  5957                           ;MCAL_Layer/Interrupt/mcal_interrupt_manager.c: 207:  if((PIE1bits.TMR1IE == 1) && (PIR1
      +                          bits.TMR1IF == 1)){
  5958   00131E  A09D               	btfss	157,0,c	;volatile
  5959   001320  EF94  F009         	goto	i2u589_41
  5960   001324  EF96  F009         	goto	i2u589_40
  5961   001328                     i2u589_41:
  5962   001328  EF9F  F009         	goto	i2l1207
  5963   00132C                     i2u589_40:
  5964   00132C  A09E               	btfss	158,0,c	;volatile
  5965   00132E  EF9B  F009         	goto	i2u590_41
  5966   001332  EF9D  F009         	goto	i2u590_40
  5967   001336                     i2u590_41:
  5968   001336  EF9F  F009         	goto	i2l1207
  5969   00133A                     i2u590_40:
  5970   00133A                     
  5971                           ;MCAL_Layer/Interrupt/mcal_interrupt_manager.c: 208:         TMR1_ISR();
  5972   00133A  EC7A  F014         	call	_TMR1_ISR	;wreg free
  5973   00133E                     i2l1207:
  5974                           
  5975                           ;MCAL_Layer/Interrupt/mcal_interrupt_manager.c: 213: if((PIE1bits.TMR2IE == 1) && (PIR1b
      +                          its.TMR2IF == 1)){
  5976   00133E  A29D               	btfss	157,1,c	;volatile
  5977   001340  EFA4  F009         	goto	i2u591_41
  5978   001344  EFA6  F009         	goto	i2u591_40
  5979   001348                     i2u591_41:
  5980   001348  EFAF  F009         	goto	i2l1209
  5981   00134C                     i2u591_40:
  5982   00134C  A29E               	btfss	158,1,c	;volatile
  5983   00134E  EFAB  F009         	goto	i2u592_41
  5984   001352  EFAD  F009         	goto	i2u592_40
  5985   001356                     i2u592_41:
  5986   001356  EFAF  F009         	goto	i2l1209
  5987   00135A                     i2u592_40:
  5988   00135A                     
  5989                           ;MCAL_Layer/Interrupt/mcal_interrupt_manager.c: 214:         TMR2_ISR();
  5990   00135A  EC86  F014         	call	_TMR2_ISR	;wreg free
  5991   00135E                     i2l1209:
  5992                           
  5993                           ;MCAL_Layer/Interrupt/mcal_interrupt_manager.c: 219:     if((PIE2bits.TMR3IE == 1) && (P
      +                          IR2bits.TMR3IF == 1)){
  5994   00135E  A2A0               	btfss	160,1,c	;volatile
  5995   001360  EFB4  F009         	goto	i2u593_41
  5996   001364  EFB6  F009         	goto	i2u593_40
  5997   001368                     i2u593_41:
  5998   001368  EFBF  F009         	goto	i2l1211
  5999   00136C                     i2u593_40:
  6000   00136C  A2A1               	btfss	161,1,c	;volatile
  6001   00136E  EFBB  F009         	goto	i2u594_41
  6002   001372  EFBD  F009         	goto	i2u594_40
  6003   001376                     i2u594_41:
  6004   001376  EFBF  F009         	goto	i2l1211
  6005   00137A                     i2u594_40:
  6006   00137A                     
  6007                           ;MCAL_Layer/Interrupt/mcal_interrupt_manager.c: 220:         TMR3_ISR();
  6008   00137A  EC74  F014         	call	_TMR3_ISR	;wreg free
  6009   00137E                     i2l1211:
  6010                           
  6011                           ;MCAL_Layer/Interrupt/mcal_interrupt_manager.c: 225:      if((PIE1bits.CCP1IE == 1) && (
      +                          PIR1bits.CCP1IF == 1)){
  6012   00137E  A49D               	btfss	157,2,c	;volatile
  6013   001380  EFC4  F009         	goto	i2u595_41
  6014   001384  EFC6  F009         	goto	i2u595_40
  6015   001388                     i2u595_41:
  6016   001388  EFCF  F009         	goto	i2l1213
  6017   00138C                     i2u595_40:
  6018   00138C  A49E               	btfss	158,2,c	;volatile
  6019   00138E  EFCB  F009         	goto	i2u596_41
  6020   001392  EFCD  F009         	goto	i2u596_40
  6021   001396                     i2u596_41:
  6022   001396  EFCF  F009         	goto	i2l1213
  6023   00139A                     i2u596_40:
  6024   00139A                     
  6025                           ;MCAL_Layer/Interrupt/mcal_interrupt_manager.c: 226:         CCP1_ISR();
  6026   00139A  EC9A  F014         	call	_CCP1_ISR	;wreg free
  6027   00139E                     i2l1213:
  6028                           
  6029                           ;MCAL_Layer/Interrupt/mcal_interrupt_manager.c: 231:      if((PIE2bits.CCP2IE == 1) && (
      +                          PIR2bits.CCP2IF == 1)){
  6030   00139E  A0A0               	btfss	160,0,c	;volatile
  6031   0013A0  EFD4  F009         	goto	i2u597_41
  6032   0013A4  EFD6  F009         	goto	i2u597_40
  6033   0013A8                     i2u597_41:
  6034   0013A8  EFDF  F009         	goto	i2l1215
  6035   0013AC                     i2u597_40:
  6036   0013AC  A0A1               	btfss	161,0,c	;volatile
  6037   0013AE  EFDB  F009         	goto	i2u598_41
  6038   0013B2  EFDD  F009         	goto	i2u598_40
  6039   0013B6                     i2u598_41:
  6040   0013B6  EFDF  F009         	goto	i2l1215
  6041   0013BA                     i2u598_40:
  6042   0013BA                     
  6043                           ;MCAL_Layer/Interrupt/mcal_interrupt_manager.c: 232:         CCP2_ISR();
  6044   0013BA  EC98  F014         	call	_CCP2_ISR	;wreg free
  6045   0013BE                     i2l1215:
  6046                           
  6047                           ;MCAL_Layer/Interrupt/mcal_interrupt_manager.c: 237:      if((PIE1bits.TXIE == 1) && (PI
      +                          R1bits.TXIF == 1)){
  6048   0013BE  A89D               	btfss	157,4,c	;volatile
  6049   0013C0  EFE4  F009         	goto	i2u599_41
  6050   0013C4  EFE6  F009         	goto	i2u599_40
  6051   0013C8                     i2u599_41:
  6052   0013C8  EFEF  F009         	goto	i2l1217
  6053   0013CC                     i2u599_40:
  6054   0013CC  A89E               	btfss	158,4,c	;volatile
  6055   0013CE  EFEB  F009         	goto	i2u600_41
  6056   0013D2  EFED  F009         	goto	i2u600_40
  6057   0013D6                     i2u600_41:
  6058   0013D6  EFEF  F009         	goto	i2l1217
  6059   0013DA                     i2u600_40:
  6060   0013DA                     
  6061                           ;MCAL_Layer/Interrupt/mcal_interrupt_manager.c: 238:         EUSART_TX_ASY_ISR();
  6062   0013DA  EC96  F014         	call	_EUSART_TX_ASY_ISR	;wreg free
  6063   0013DE                     i2l1217:
  6064                           
  6065                           ;MCAL_Layer/Interrupt/mcal_interrupt_manager.c: 243:          if((PIE1bits.RCIE == 1) &&
      +                           (PIR1bits.RCIF == 1)){
  6066   0013DE  AA9D               	btfss	157,5,c	;volatile
  6067   0013E0  EFF4  F009         	goto	i2u601_41
  6068   0013E4  EFF6  F009         	goto	i2u601_40
  6069   0013E8                     i2u601_41:
  6070   0013E8  EFFF  F009         	goto	i2l1219
  6071   0013EC                     i2u601_40:
  6072   0013EC  AA9E               	btfss	158,5,c	;volatile
  6073   0013EE  EFFB  F009         	goto	i2u602_41
  6074   0013F2  EFFD  F009         	goto	i2u602_40
  6075   0013F6                     i2u602_41:
  6076   0013F6  EFFF  F009         	goto	i2l1219
  6077   0013FA                     i2u602_40:
  6078   0013FA                     
  6079                           ;MCAL_Layer/Interrupt/mcal_interrupt_manager.c: 244:         EUSART_RX_ASY_ISR();
  6080   0013FA  EC9F  F014         	call	_EUSART_RX_ASY_ISR	;wreg free
  6081   0013FE                     i2l1219:
  6082                           
  6083                           ;MCAL_Layer/Interrupt/mcal_interrupt_manager.c: 249:      if((PIE1bits.SSPIE == 1) && (P
      +                          IR1bits.SSPIF == 1)){
  6084   0013FE  A69D               	btfss	157,3,c	;volatile
  6085   001400  EF04  F00A         	goto	i2u603_41
  6086   001404  EF06  F00A         	goto	i2u603_40
  6087   001408                     i2u603_41:
  6088   001408  EF0F  F00A         	goto	i2l1221
  6089   00140C                     i2u603_40:
  6090   00140C  A69E               	btfss	158,3,c	;volatile
  6091   00140E  EF0B  F00A         	goto	i2u604_41
  6092   001412  EF0D  F00A         	goto	i2u604_40
  6093   001416                     i2u604_41:
  6094   001416  EF0F  F00A         	goto	i2l1221
  6095   00141A                     i2u604_40:
  6096   00141A                     
  6097                           ;MCAL_Layer/Interrupt/mcal_interrupt_manager.c: 250:         I2C_MODULE_TR_ISR();
  6098   00141A  EC92  F014         	call	_I2C_MODULE_TR_ISR	;wreg free
  6099   00141E                     i2l1221:
  6100                           
  6101                           ;MCAL_Layer/Interrupt/mcal_interrupt_manager.c: 255:          if((PIE2bits.BCLIE == 1) &
      +                          & (PIR2bits.BCLIF == 1)){
  6102   00141E  A6A0               	btfss	160,3,c	;volatile
  6103   001420  EF14  F00A         	goto	i2u605_41
  6104   001424  EF16  F00A         	goto	i2u605_40
  6105   001428                     i2u605_41:
  6106   001428  EF1F  F00A         	goto	i2l1223
  6107   00142C                     i2u605_40:
  6108   00142C  A6A1               	btfss	161,3,c	;volatile
  6109   00142E  EF1B  F00A         	goto	i2u606_41
  6110   001432  EF1D  F00A         	goto	i2u606_40
  6111   001436                     i2u606_41:
  6112   001436  EF1F  F00A         	goto	i2l1223
  6113   00143A                     i2u606_40:
  6114   00143A                     
  6115                           ;MCAL_Layer/Interrupt/mcal_interrupt_manager.c: 256:         I2C_BUS_COLLISION_ISR();
  6116   00143A  EC94  F014         	call	_I2C_BUS_COLLISION_ISR	;wreg free
  6117   00143E                     i2l1223:
  6118                           
  6119                           ;MCAL_Layer/Interrupt/mcal_interrupt_manager.c: 261:      if((PIE1bits.SSPIE == 1) && (P
      +                          IR1bits.SSPIF == 1)){
  6120   00143E  A69D               	btfss	157,3,c	;volatile
  6121   001440  EF24  F00A         	goto	i2u607_41
  6122   001444  EF26  F00A         	goto	i2u607_40
  6123   001448                     i2u607_41:
  6124   001448  EF2F  F00A         	goto	i2l1226
  6125   00144C                     i2u607_40:
  6126   00144C  A69E               	btfss	158,3,c	;volatile
  6127   00144E  EF2B  F00A         	goto	i2u608_41
  6128   001452  EF2D  F00A         	goto	i2u608_40
  6129   001456                     i2u608_41:
  6130   001456  EF2F  F00A         	goto	i2l1226
  6131   00145A                     i2u608_40:
  6132   00145A                     
  6133                           ;MCAL_Layer/Interrupt/mcal_interrupt_manager.c: 262:         MSSP_Spi_ISR();
  6134   00145A  EC8A  F014         	call	_MSSP_Spi_ISR	;wreg free
  6135   00145E                     i2l1226:
  6136   00145E  927B               	bcf	int$flags,1,c	;clear compiler interrupt flag (level 2)
  6137   001460  0011               	retfie		f
  6138   001462                     __end_of_InterruptManager:
  6139                           	callstack 0
  6140                           
  6141 ;; *************** function _TMR3_ISR *****************
  6142 ;; Defined at:
  6143 ;;		line 91 in file "MCAL_Layer/TIMER3/hal_timer3.c"
  6144 ;; Parameters:    Size  Location     Type
  6145 ;;		None
  6146 ;; Auto vars:     Size  Location     Type
  6147 ;;		None
  6148 ;; Return value:  Size  Location     Type
  6149 ;;                  1    wreg      void 
  6150 ;; Registers used:
  6151 ;;		wreg, status,2
  6152 ;; Tracked objects:
  6153 ;;		On entry : 0/0
  6154 ;;		On exit  : 0/0
  6155 ;;		Unchanged: 0/0
  6156 ;; Data sizes:     COMRAM   BANK0   BANK1   BANK2   BANK3   BANK4   BANK5   BANK6   BANK7   BANK8   BANK9  BANK10  BANK1
      +1  BANK12  BANK13  BANK14  BANK15
  6157 ;;      Params:         0       0       0       0       0       0       0       0       0       0       0       0       
      +0       0       0       0       0
  6158 ;;      Locals:         0       0       0       0       0       0       0       0       0       0       0       0       
      +0       0       0       0       0
  6159 ;;      Temps:          0       0       0       0       0       0       0       0       0       0       0       0       
      +0       0       0       0       0
  6160 ;;      Totals:         0       0       0       0       0       0       0       0       0       0       0       0       
      +0       0       0       0       0
  6161 ;;Total ram usage:        0 bytes
  6162 ;; Hardware stack levels used: 1
  6163 ;; This function calls:
  6164 ;;		Nothing
  6165 ;; This function is called by:
  6166 ;;		_InterruptManager
  6167 ;; This function uses a non-reentrant model
  6168 ;;
  6169                           
  6170                           	psect	text37
  6171   0028E8                     __ptext37:
  6172                           	callstack 0
  6173   0028E8                     _TMR3_ISR:
  6174                           	callstack 23
  6175   0028E8                     
  6176                           ;MCAL_Layer/TIMER3/hal_timer3.c: 92:  (PIR2bits.TMR3IF = 0 );
  6177   0028E8  92A1               	bcf	161,1,c	;volatile
  6178   0028EA                     
  6179                           ;MCAL_Layer/TIMER3/hal_timer3.c: 93:   TMR3H = (preload_vall) >> 8;
  6180   0028EA  5002               	movf	(_preload_vall+1)^0,w,c	;volatile
  6181   0028EC  6EB3               	movwf	179,c	;volatile
  6182   0028EE                     
  6183                           ;MCAL_Layer/TIMER3/hal_timer3.c: 94:     TMR3L = (uint8)(preload_vall);
  6184   0028EE  C001  FFB2         	movff	_preload_vall,4018	;volatile
  6185   0028F2  0012               	return		;funcret
  6186   0028F4                     __end_of_TMR3_ISR:
  6187                           	callstack 0
  6188                           
  6189 ;; *************** function _TMR2_ISR *****************
  6190 ;; Defined at:
  6191 ;;		line 74 in file "MCAL_Layer/TIMER2/hal_timer2.c"
  6192 ;; Parameters:    Size  Location     Type
  6193 ;;		None
  6194 ;; Auto vars:     Size  Location     Type
  6195 ;;		None
  6196 ;; Return value:  Size  Location     Type
  6197 ;;                  1    wreg      void 
  6198 ;; Registers used:
  6199 ;;		None
  6200 ;; Tracked objects:
  6201 ;;		On entry : 0/0
  6202 ;;		On exit  : 0/0
  6203 ;;		Unchanged: 0/0
  6204 ;; Data sizes:     COMRAM   BANK0   BANK1   BANK2   BANK3   BANK4   BANK5   BANK6   BANK7   BANK8   BANK9  BANK10  BANK1
      +1  BANK12  BANK13  BANK14  BANK15
  6205 ;;      Params:         0       0       0       0       0       0       0       0       0       0       0       0       
      +0       0       0       0       0
  6206 ;;      Locals:         0       0       0       0       0       0       0       0       0       0       0       0       
      +0       0       0       0       0
  6207 ;;      Temps:          0       0       0       0       0       0       0       0       0       0       0       0       
      +0       0       0       0       0
  6208 ;;      Totals:         0       0       0       0       0       0       0       0       0       0       0       0       
      +0       0       0       0       0
  6209 ;;Total ram usage:        0 bytes
  6210 ;; Hardware stack levels used: 1
  6211 ;; This function calls:
  6212 ;;		Nothing
  6213 ;; This function is called by:
  6214 ;;		_InterruptManager
  6215 ;; This function uses a non-reentrant model
  6216 ;;
  6217                           
  6218                           	psect	text38
  6219   00290C                     __ptext38:
  6220                           	callstack 0
  6221   00290C                     _TMR2_ISR:
  6222                           	callstack 23
  6223   00290C                     
  6224                           ;MCAL_Layer/TIMER2/hal_timer2.c: 75:     (PIR1bits.TMR2IF = 0 );
  6225   00290C  929E               	bcf	158,1,c	;volatile
  6226                           
  6227                           ;MCAL_Layer/TIMER2/hal_timer2.c: 76:     TMR2 = preload_val ;
  6228   00290E  C032  FFCC         	movff	_preload_val,4044	;volatile
  6229   002912  0012               	return		;funcret
  6230   002914                     __end_of_TMR2_ISR:
  6231                           	callstack 0
  6232                           
  6233 ;; *************** function _TMR1_ISR *****************
  6234 ;; Defined at:
  6235 ;;		line 108 in file "MCAL_Layer/TIMER1/hal_timer1.c"
  6236 ;; Parameters:    Size  Location     Type
  6237 ;;		None
  6238 ;; Auto vars:     Size  Location     Type
  6239 ;;		None
  6240 ;; Return value:  Size  Location     Type
  6241 ;;                  1    wreg      void 
  6242 ;; Registers used:
  6243 ;;		wreg, status,2
  6244 ;; Tracked objects:
  6245 ;;		On entry : 0/0
  6246 ;;		On exit  : 0/0
  6247 ;;		Unchanged: 0/0
  6248 ;; Data sizes:     COMRAM   BANK0   BANK1   BANK2   BANK3   BANK4   BANK5   BANK6   BANK7   BANK8   BANK9  BANK10  BANK1
      +1  BANK12  BANK13  BANK14  BANK15
  6249 ;;      Params:         0       0       0       0       0       0       0       0       0       0       0       0       
      +0       0       0       0       0
  6250 ;;      Locals:         0       0       0       0       0       0       0       0       0       0       0       0       
      +0       0       0       0       0
  6251 ;;      Temps:          0       0       0       0       0       0       0       0       0       0       0       0       
      +0       0       0       0       0
  6252 ;;      Totals:         0       0       0       0       0       0       0       0       0       0       0       0       
      +0       0       0       0       0
  6253 ;;Total ram usage:        0 bytes
  6254 ;; Hardware stack levels used: 1
  6255 ;; This function calls:
  6256 ;;		Nothing
  6257 ;; This function is called by:
  6258 ;;		_InterruptManager
  6259 ;; This function uses a non-reentrant model
  6260 ;;
  6261                           
  6262                           	psect	text39
  6263   0028F4                     __ptext39:
  6264                           	callstack 0
  6265   0028F4                     _TMR1_ISR:
  6266                           	callstack 23
  6267   0028F4                     
  6268                           ;MCAL_Layer/TIMER1/hal_timer1.c: 109:     (PIR1bits.TMR1IF = 0 );
  6269   0028F4  909E               	bcf	158,0,c	;volatile
  6270   0028F6                     
  6271                           ;MCAL_Layer/TIMER1/hal_timer1.c: 110:      TMR1H = ((preload_value)>>8);
  6272   0028F6  5004               	movf	(_preload_value@hal_timer1$F3998+1)^0,w,c	;volatile
  6273   0028F8  6ECF               	movwf	207,c	;volatile
  6274   0028FA                     
  6275                           ;MCAL_Layer/TIMER1/hal_timer1.c: 111:        TMR1L = (uint8)(preload_value);
  6276   0028FA  C003  FFCE         	movff	_preload_value@hal_timer1$F3998,4046	;volatile
  6277   0028FE  0012               	return		;funcret
  6278   002900                     __end_of_TMR1_ISR:
  6279                           	callstack 0
  6280                           
  6281 ;; *************** function _TMR0_ISR *****************
  6282 ;; Defined at:
  6283 ;;		line 149 in file "MCAL_Layer/TIMER0/hal_timer0.c"
  6284 ;; Parameters:    Size  Location     Type
  6285 ;;		None
  6286 ;; Auto vars:     Size  Location     Type
  6287 ;;		None
  6288 ;; Return value:  Size  Location     Type
  6289 ;;                  1    wreg      void 
  6290 ;; Registers used:
  6291 ;;		wreg, status,2
  6292 ;; Tracked objects:
  6293 ;;		On entry : 0/0
  6294 ;;		On exit  : 0/0
  6295 ;;		Unchanged: 0/0
  6296 ;; Data sizes:     COMRAM   BANK0   BANK1   BANK2   BANK3   BANK4   BANK5   BANK6   BANK7   BANK8   BANK9  BANK10  BANK1
      +1  BANK12  BANK13  BANK14  BANK15
  6297 ;;      Params:         0       0       0       0       0       0       0       0       0       0       0       0       
      +0       0       0       0       0
  6298 ;;      Locals:         0       0       0       0       0       0       0       0       0       0       0       0       
      +0       0       0       0       0
  6299 ;;      Temps:          0       0       0       0       0       0       0       0       0       0       0       0       
      +0       0       0       0       0
  6300 ;;      Totals:         0       0       0       0       0       0       0       0       0       0       0       0       
      +0       0       0       0       0
  6301 ;;Total ram usage:        0 bytes
  6302 ;; Hardware stack levels used: 1
  6303 ;; This function calls:
  6304 ;;		Nothing
  6305 ;; This function is called by:
  6306 ;;		_InterruptManager
  6307 ;; This function uses a non-reentrant model
  6308 ;;
  6309                           
  6310                           	psect	text40
  6311   002900                     __ptext40:
  6312                           	callstack 0
  6313   002900                     _TMR0_ISR:
  6314                           	callstack 23
  6315   002900                     
  6316                           ;MCAL_Layer/TIMER0/hal_timer0.c: 150:     (INTCONbits.TMR0IF = 0);
  6317   002900  94F2               	bcf	242,2,c	;volatile
  6318   002902                     
  6319                           ;MCAL_Layer/TIMER0/hal_timer0.c: 151:     TMR0H = (preload_value >> 8);
  6320   002902  5006               	movf	(_preload_value+1)^0,w,c	;volatile
  6321   002904  6ED7               	movwf	215,c	;volatile
  6322   002906                     
  6323                           ;MCAL_Layer/TIMER0/hal_timer0.c: 152:     TMR0L =(uint8)(preload_value);
  6324   002906  C005  FFD6         	movff	_preload_value,4054	;volatile
  6325   00290A  0012               	return		;funcret
  6326   00290C                     __end_of_TMR0_ISR:
  6327                           	callstack 0
  6328                           
  6329 ;; *************** function _RB7_ISR *****************
  6330 ;; Defined at:
  6331 ;;		line 609 in file "MCAL_Layer/Interrupt/mcal_external_interrupt.c"
  6332 ;; Parameters:    Size  Location     Type
  6333 ;;  RB7_source      1    wreg     unsigned char 
  6334 ;; Auto vars:     Size  Location     Type
  6335 ;;  RB7_source      1    0[COMRAM] unsigned char 
  6336 ;; Return value:  Size  Location     Type
  6337 ;;                  1    wreg      void 
  6338 ;; Registers used:
  6339 ;;		wreg, status,2, status,0
  6340 ;; Tracked objects:
  6341 ;;		On entry : 0/0
  6342 ;;		On exit  : 0/0
  6343 ;;		Unchanged: 0/0
  6344 ;; Data sizes:     COMRAM   BANK0   BANK1   BANK2   BANK3   BANK4   BANK5   BANK6   BANK7   BANK8   BANK9  BANK10  BANK1
      +1  BANK12  BANK13  BANK14  BANK15
  6345 ;;      Params:         0       0       0       0       0       0       0       0       0       0       0       0       
      +0       0       0       0       0
  6346 ;;      Locals:         1       0       0       0       0       0       0       0       0       0       0       0       
      +0       0       0       0       0
  6347 ;;      Temps:          0       0       0       0       0       0       0       0       0       0       0       0       
      +0       0       0       0       0
  6348 ;;      Totals:         1       0       0       0       0       0       0       0       0       0       0       0       
      +0       0       0       0       0
  6349 ;;Total ram usage:        1 bytes
  6350 ;; Hardware stack levels used: 1
  6351 ;; This function calls:
  6352 ;;		Nothing
  6353 ;; This function is called by:
  6354 ;;		_InterruptManager
  6355 ;; This function uses a non-reentrant model
  6356 ;;
  6357                           
  6358                           	psect	text41
  6359   002860                     __ptext41:
  6360                           	callstack 0
  6361   002860                     _RB7_ISR:
  6362                           	callstack 23
  6363                           
  6364                           ;incstack = 0
  6365                           ;RB7_ISR@RB7_source stored from wreg
  6366   002860  6E3C               	movwf	RB7_ISR@RB7_source^0,c
  6367   002862                     
  6368                           ;MCAL_Layer/Interrupt/mcal_external_interrupt.c: 611:     (INTCONbits.RBIF = 0);
  6369   002862  90F2               	bcf	242,0,c	;volatile
  6370   002864                     
  6371                           ;MCAL_Layer/Interrupt/mcal_external_interrupt.c: 613:     if(0 == RB7_source){
  6372   002864  503C               	movf	RB7_ISR@RB7_source^0,w,c
  6373   002866  A4D8               	btfss	status,2,c
  6374   002868  EF38  F014         	goto	i2u104_41
  6375   00286C  EF3A  F014         	goto	i2u104_40
  6376   002870                     i2u104_41:
  6377   002870  EF3C  F014         	goto	i2l3489
  6378   002874                     i2u104_40:
  6379   002874  EF3C  F014         	goto	i2l1115
  6380   002878                     i2l3489:
  6381   002878                     i2l1115:
  6382   002878  0012               	return		;funcret
  6383   00287A                     __end_of_RB7_ISR:
  6384                           	callstack 0
  6385                           
  6386 ;; *************** function _RB6_ISR *****************
  6387 ;; Defined at:
  6388 ;;		line 585 in file "MCAL_Layer/Interrupt/mcal_external_interrupt.c"
  6389 ;; Parameters:    Size  Location     Type
  6390 ;;  RB6_source      1    wreg     unsigned char 
  6391 ;; Auto vars:     Size  Location     Type
  6392 ;;  RB6_source      1    0[COMRAM] unsigned char 
  6393 ;; Return value:  Size  Location     Type
  6394 ;;                  1    wreg      void 
  6395 ;; Registers used:
  6396 ;;		wreg, status,2, status,0
  6397 ;; Tracked objects:
  6398 ;;		On entry : 0/0
  6399 ;;		On exit  : 0/0
  6400 ;;		Unchanged: 0/0
  6401 ;; Data sizes:     COMRAM   BANK0   BANK1   BANK2   BANK3   BANK4   BANK5   BANK6   BANK7   BANK8   BANK9  BANK10  BANK1
      +1  BANK12  BANK13  BANK14  BANK15
  6402 ;;      Params:         0       0       0       0       0       0       0       0       0       0       0       0       
      +0       0       0       0       0
  6403 ;;      Locals:         1       0       0       0       0       0       0       0       0       0       0       0       
      +0       0       0       0       0
  6404 ;;      Temps:          0       0       0       0       0       0       0       0       0       0       0       0       
      +0       0       0       0       0
  6405 ;;      Totals:         1       0       0       0       0       0       0       0       0       0       0       0       
      +0       0       0       0       0
  6406 ;;Total ram usage:        1 bytes
  6407 ;; Hardware stack levels used: 1
  6408 ;; This function calls:
  6409 ;;		Nothing
  6410 ;; This function is called by:
  6411 ;;		_InterruptManager
  6412 ;; This function uses a non-reentrant model
  6413 ;;
  6414                           
  6415                           	psect	text42
  6416   00287A                     __ptext42:
  6417                           	callstack 0
  6418   00287A                     _RB6_ISR:
  6419                           	callstack 23
  6420                           
  6421                           ;incstack = 0
  6422                           ;RB6_ISR@RB6_source stored from wreg
  6423   00287A  6E3C               	movwf	RB6_ISR@RB6_source^0,c
  6424   00287C                     
  6425                           ;MCAL_Layer/Interrupt/mcal_external_interrupt.c: 587:     (INTCONbits.RBIF = 0);
  6426   00287C  90F2               	bcf	242,0,c	;volatile
  6427   00287E                     
  6428                           ;MCAL_Layer/Interrupt/mcal_external_interrupt.c: 589:     if(0 == RB6_source){
  6429   00287E  503C               	movf	RB6_ISR@RB6_source^0,w,c
  6430   002880  A4D8               	btfss	status,2,c
  6431   002882  EF45  F014         	goto	i2u103_41
  6432   002886  EF47  F014         	goto	i2u103_40
  6433   00288A                     i2u103_41:
  6434   00288A  EF49  F014         	goto	i2l3475
  6435   00288E                     i2u103_40:
  6436   00288E  EF49  F014         	goto	i2l1104
  6437   002892                     i2l3475:
  6438   002892                     i2l1104:
  6439   002892  0012               	return		;funcret
  6440   002894                     __end_of_RB6_ISR:
  6441                           	callstack 0
  6442                           
  6443 ;; *************** function _RB5_ISR *****************
  6444 ;; Defined at:
  6445 ;;		line 561 in file "MCAL_Layer/Interrupt/mcal_external_interrupt.c"
  6446 ;; Parameters:    Size  Location     Type
  6447 ;;  RB5_source      1    wreg     unsigned char 
  6448 ;; Auto vars:     Size  Location     Type
  6449 ;;  RB5_source      1    0[COMRAM] unsigned char 
  6450 ;; Return value:  Size  Location     Type
  6451 ;;                  1    wreg      void 
  6452 ;; Registers used:
  6453 ;;		wreg, status,2, status,0
  6454 ;; Tracked objects:
  6455 ;;		On entry : 0/0
  6456 ;;		On exit  : 0/0
  6457 ;;		Unchanged: 0/0
  6458 ;; Data sizes:     COMRAM   BANK0   BANK1   BANK2   BANK3   BANK4   BANK5   BANK6   BANK7   BANK8   BANK9  BANK10  BANK1
      +1  BANK12  BANK13  BANK14  BANK15
  6459 ;;      Params:         0       0       0       0       0       0       0       0       0       0       0       0       
      +0       0       0       0       0
  6460 ;;      Locals:         1       0       0       0       0       0       0       0       0       0       0       0       
      +0       0       0       0       0
  6461 ;;      Temps:          0       0       0       0       0       0       0       0       0       0       0       0       
      +0       0       0       0       0
  6462 ;;      Totals:         1       0       0       0       0       0       0       0       0       0       0       0       
      +0       0       0       0       0
  6463 ;;Total ram usage:        1 bytes
  6464 ;; Hardware stack levels used: 1
  6465 ;; This function calls:
  6466 ;;		Nothing
  6467 ;; This function is called by:
  6468 ;;		_InterruptManager
  6469 ;; This function uses a non-reentrant model
  6470 ;;
  6471                           
  6472                           	psect	text43
  6473   002894                     __ptext43:
  6474                           	callstack 0
  6475   002894                     _RB5_ISR:
  6476                           	callstack 23
  6477                           
  6478                           ;incstack = 0
  6479                           ;RB5_ISR@RB5_source stored from wreg
  6480   002894  6E3C               	movwf	RB5_ISR@RB5_source^0,c
  6481   002896                     
  6482                           ;MCAL_Layer/Interrupt/mcal_external_interrupt.c: 563:     (INTCONbits.RBIF = 0);
  6483   002896  90F2               	bcf	242,0,c	;volatile
  6484   002898                     
  6485                           ;MCAL_Layer/Interrupt/mcal_external_interrupt.c: 565:     if(0 == RB5_source){
  6486   002898  503C               	movf	RB5_ISR@RB5_source^0,w,c
  6487   00289A  A4D8               	btfss	status,2,c
  6488   00289C  EF52  F014         	goto	i2u102_41
  6489   0028A0  EF54  F014         	goto	i2u102_40
  6490   0028A4                     i2u102_41:
  6491   0028A4  EF56  F014         	goto	i2l3461
  6492   0028A8                     i2u102_40:
  6493   0028A8  EF56  F014         	goto	i2l1093
  6494   0028AC                     i2l3461:
  6495   0028AC                     i2l1093:
  6496   0028AC  0012               	return		;funcret
  6497   0028AE                     __end_of_RB5_ISR:
  6498                           	callstack 0
  6499                           
  6500 ;; *************** function _RB4_ISR *****************
  6501 ;; Defined at:
  6502 ;;		line 536 in file "MCAL_Layer/Interrupt/mcal_external_interrupt.c"
  6503 ;; Parameters:    Size  Location     Type
  6504 ;;  RB4_source      1    wreg     unsigned char 
  6505 ;; Auto vars:     Size  Location     Type
  6506 ;;  RB4_source      1    0[COMRAM] unsigned char 
  6507 ;; Return value:  Size  Location     Type
  6508 ;;                  1    wreg      void 
  6509 ;; Registers used:
  6510 ;;		wreg, status,2, status,0
  6511 ;; Tracked objects:
  6512 ;;		On entry : 0/0
  6513 ;;		On exit  : 0/0
  6514 ;;		Unchanged: 0/0
  6515 ;; Data sizes:     COMRAM   BANK0   BANK1   BANK2   BANK3   BANK4   BANK5   BANK6   BANK7   BANK8   BANK9  BANK10  BANK1
      +1  BANK12  BANK13  BANK14  BANK15
  6516 ;;      Params:         0       0       0       0       0       0       0       0       0       0       0       0       
      +0       0       0       0       0
  6517 ;;      Locals:         1       0       0       0       0       0       0       0       0       0       0       0       
      +0       0       0       0       0
  6518 ;;      Temps:          0       0       0       0       0       0       0       0       0       0       0       0       
      +0       0       0       0       0
  6519 ;;      Totals:         1       0       0       0       0       0       0       0       0       0       0       0       
      +0       0       0       0       0
  6520 ;;Total ram usage:        1 bytes
  6521 ;; Hardware stack levels used: 1
  6522 ;; This function calls:
  6523 ;;		Nothing
  6524 ;; This function is called by:
  6525 ;;		_InterruptManager
  6526 ;; This function uses a non-reentrant model
  6527 ;;
  6528                           
  6529                           	psect	text44
  6530   0028AE                     __ptext44:
  6531                           	callstack 0
  6532   0028AE                     _RB4_ISR:
  6533                           	callstack 23
  6534                           
  6535                           ;incstack = 0
  6536                           ;RB4_ISR@RB4_source stored from wreg
  6537   0028AE  6E3C               	movwf	RB4_ISR@RB4_source^0,c
  6538   0028B0                     
  6539                           ;MCAL_Layer/Interrupt/mcal_external_interrupt.c: 538:     (INTCONbits.RBIF = 0);
  6540   0028B0  90F2               	bcf	242,0,c	;volatile
  6541   0028B2                     
  6542                           ;MCAL_Layer/Interrupt/mcal_external_interrupt.c: 540:     if(0 == RB4_source){
  6543   0028B2  503C               	movf	RB4_ISR@RB4_source^0,w,c
  6544   0028B4  A4D8               	btfss	status,2,c
  6545   0028B6  EF5F  F014         	goto	i2u101_41
  6546   0028BA  EF61  F014         	goto	i2u101_40
  6547   0028BE                     i2u101_41:
  6548   0028BE  EF63  F014         	goto	i2l3447
  6549   0028C2                     i2u101_40:
  6550   0028C2  EF63  F014         	goto	i2l1082
  6551   0028C6                     i2l3447:
  6552   0028C6                     i2l1082:
  6553   0028C6  0012               	return		;funcret
  6554   0028C8                     __end_of_RB4_ISR:
  6555                           	callstack 0
  6556                           
  6557 ;; *************** function _MSSP_Spi_ISR *****************
  6558 ;; Defined at:
  6559 ;;		line 177 in file "MCAL_Layer/MSSP_SPI/hal_spi.c"
  6560 ;; Parameters:    Size  Location     Type
  6561 ;;		None
  6562 ;; Auto vars:     Size  Location     Type
  6563 ;;		None
  6564 ;; Return value:  Size  Location     Type
  6565 ;;                  1    wreg      void 
  6566 ;; Registers used:
  6567 ;;		None
  6568 ;; Tracked objects:
  6569 ;;		On entry : 0/0
  6570 ;;		On exit  : 0/0
  6571 ;;		Unchanged: 0/0
  6572 ;; Data sizes:     COMRAM   BANK0   BANK1   BANK2   BANK3   BANK4   BANK5   BANK6   BANK7   BANK8   BANK9  BANK10  BANK1
      +1  BANK12  BANK13  BANK14  BANK15
  6573 ;;      Params:         0       0       0       0       0       0       0       0       0       0       0       0       
      +0       0       0       0       0
  6574 ;;      Locals:         0       0       0       0       0       0       0       0       0       0       0       0       
      +0       0       0       0       0
  6575 ;;      Temps:          0       0       0       0       0       0       0       0       0       0       0       0       
      +0       0       0       0       0
  6576 ;;      Totals:         0       0       0       0       0       0       0       0       0       0       0       0       
      +0       0       0       0       0
  6577 ;;Total ram usage:        0 bytes
  6578 ;; Hardware stack levels used: 1
  6579 ;; This function calls:
  6580 ;;		Nothing
  6581 ;; This function is called by:
  6582 ;;		_InterruptManager
  6583 ;; This function uses a non-reentrant model
  6584 ;;
  6585                           
  6586                           	psect	text45
  6587   002914                     __ptext45:
  6588                           	callstack 0
  6589   002914                     _MSSP_Spi_ISR:
  6590                           	callstack 23
  6591   002914                     
  6592                           ;MCAL_Layer/MSSP_SPI/hal_spi.c: 178:   (PIR1bits.SSPIF = 0 );
  6593   002914  969E               	bcf	158,3,c	;volatile
  6594   002916  0012               	return		;funcret
  6595   002918                     __end_of_MSSP_Spi_ISR:
  6596                           	callstack 0
  6597                           
  6598 ;; *************** function _INT2_ISR *****************
  6599 ;; Defined at:
  6600 ;;		line 522 in file "MCAL_Layer/Interrupt/mcal_external_interrupt.c"
  6601 ;; Parameters:    Size  Location     Type
  6602 ;;		None
  6603 ;; Auto vars:     Size  Location     Type
  6604 ;;		None
  6605 ;; Return value:  Size  Location     Type
  6606 ;;                  1    wreg      void 
  6607 ;; Registers used:
  6608 ;;		None
  6609 ;; Tracked objects:
  6610 ;;		On entry : 0/0
  6611 ;;		On exit  : 0/0
  6612 ;;		Unchanged: 0/0
  6613 ;; Data sizes:     COMRAM   BANK0   BANK1   BANK2   BANK3   BANK4   BANK5   BANK6   BANK7   BANK8   BANK9  BANK10  BANK1
      +1  BANK12  BANK13  BANK14  BANK15
  6614 ;;      Params:         0       0       0       0       0       0       0       0       0       0       0       0       
      +0       0       0       0       0
  6615 ;;      Locals:         0       0       0       0       0       0       0       0       0       0       0       0       
      +0       0       0       0       0
  6616 ;;      Temps:          0       0       0       0       0       0       0       0       0       0       0       0       
      +0       0       0       0       0
  6617 ;;      Totals:         0       0       0       0       0       0       0       0       0       0       0       0       
      +0       0       0       0       0
  6618 ;;Total ram usage:        0 bytes
  6619 ;; Hardware stack levels used: 1
  6620 ;; This function calls:
  6621 ;;		Nothing
  6622 ;; This function is called by:
  6623 ;;		_InterruptManager
  6624 ;; This function uses a non-reentrant model
  6625 ;;
  6626                           
  6627                           	psect	text46
  6628   002918                     __ptext46:
  6629                           	callstack 0
  6630   002918                     _INT2_ISR:
  6631                           	callstack 23
  6632   002918                     
  6633                           ;MCAL_Layer/Interrupt/mcal_external_interrupt.c: 524:     (INTCON3bits.INT2IF = 0);
  6634   002918  92F0               	bcf	240,1,c	;volatile
  6635   00291A  0012               	return		;funcret
  6636   00291C                     __end_of_INT2_ISR:
  6637                           	callstack 0
  6638                           
  6639 ;; *************** function _INT1_ISR *****************
  6640 ;; Defined at:
  6641 ;;		line 508 in file "MCAL_Layer/Interrupt/mcal_external_interrupt.c"
  6642 ;; Parameters:    Size  Location     Type
  6643 ;;		None
  6644 ;; Auto vars:     Size  Location     Type
  6645 ;;		None
  6646 ;; Return value:  Size  Location     Type
  6647 ;;                  1    wreg      void 
  6648 ;; Registers used:
  6649 ;;		None
  6650 ;; Tracked objects:
  6651 ;;		On entry : 0/0
  6652 ;;		On exit  : 0/0
  6653 ;;		Unchanged: 0/0
  6654 ;; Data sizes:     COMRAM   BANK0   BANK1   BANK2   BANK3   BANK4   BANK5   BANK6   BANK7   BANK8   BANK9  BANK10  BANK1
      +1  BANK12  BANK13  BANK14  BANK15
  6655 ;;      Params:         0       0       0       0       0       0       0       0       0       0       0       0       
      +0       0       0       0       0
  6656 ;;      Locals:         0       0       0       0       0       0       0       0       0       0       0       0       
      +0       0       0       0       0
  6657 ;;      Temps:          0       0       0       0       0       0       0       0       0       0       0       0       
      +0       0       0       0       0
  6658 ;;      Totals:         0       0       0       0       0       0       0       0       0       0       0       0       
      +0       0       0       0       0
  6659 ;;Total ram usage:        0 bytes
  6660 ;; Hardware stack levels used: 1
  6661 ;; This function calls:
  6662 ;;		Nothing
  6663 ;; This function is called by:
  6664 ;;		_InterruptManager
  6665 ;; This function uses a non-reentrant model
  6666 ;;
  6667                           
  6668                           	psect	text47
  6669   00291C                     __ptext47:
  6670                           	callstack 0
  6671   00291C                     _INT1_ISR:
  6672                           	callstack 23
  6673   00291C                     
  6674                           ;MCAL_Layer/Interrupt/mcal_external_interrupt.c: 510:     (INTCON3bits.INT1IF = 0);
  6675   00291C  90F0               	bcf	240,0,c	;volatile
  6676   00291E  0012               	return		;funcret
  6677   002920                     __end_of_INT1_ISR:
  6678                           	callstack 0
  6679                           
  6680 ;; *************** function _INT0_ISR *****************
  6681 ;; Defined at:
  6682 ;;		line 497 in file "MCAL_Layer/Interrupt/mcal_external_interrupt.c"
  6683 ;; Parameters:    Size  Location     Type
  6684 ;;		None
  6685 ;; Auto vars:     Size  Location     Type
  6686 ;;		None
  6687 ;; Return value:  Size  Location     Type
  6688 ;;                  1    wreg      void 
  6689 ;; Registers used:
  6690 ;;		None
  6691 ;; Tracked objects:
  6692 ;;		On entry : 0/0
  6693 ;;		On exit  : 0/0
  6694 ;;		Unchanged: 0/0
  6695 ;; Data sizes:     COMRAM   BANK0   BANK1   BANK2   BANK3   BANK4   BANK5   BANK6   BANK7   BANK8   BANK9  BANK10  BANK1
      +1  BANK12  BANK13  BANK14  BANK15
  6696 ;;      Params:         0       0       0       0       0       0       0       0       0       0       0       0       
      +0       0       0       0       0
  6697 ;;      Locals:         0       0       0       0       0       0       0       0       0       0       0       0       
      +0       0       0       0       0
  6698 ;;      Temps:          0       0       0       0       0       0       0       0       0       0       0       0       
      +0       0       0       0       0
  6699 ;;      Totals:         0       0       0       0       0       0       0       0       0       0       0       0       
      +0       0       0       0       0
  6700 ;;Total ram usage:        0 bytes
  6701 ;; Hardware stack levels used: 1
  6702 ;; This function calls:
  6703 ;;		Nothing
  6704 ;; This function is called by:
  6705 ;;		_InterruptManager
  6706 ;; This function uses a non-reentrant model
  6707 ;;
  6708                           
  6709                           	psect	text48
  6710   002920                     __ptext48:
  6711                           	callstack 0
  6712   002920                     _INT0_ISR:
  6713                           	callstack 23
  6714   002920                     
  6715                           ;MCAL_Layer/Interrupt/mcal_external_interrupt.c: 499:     (INTCONbits.INT0IF = 0);
  6716   002920  92F2               	bcf	242,1,c	;volatile
  6717   002922  0012               	return		;funcret
  6718   002924                     __end_of_INT0_ISR:
  6719                           	callstack 0
  6720                           
  6721 ;; *************** function _I2C_MODULE_TR_ISR *****************
  6722 ;; Defined at:
  6723 ;;		line 242 in file "MCAL_Layer/MSSP_I2C/hal_i2c.c"
  6724 ;; Parameters:    Size  Location     Type
  6725 ;;		None
  6726 ;; Auto vars:     Size  Location     Type
  6727 ;;		None
  6728 ;; Return value:  Size  Location     Type
  6729 ;;                  1    wreg      void 
  6730 ;; Registers used:
  6731 ;;		None
  6732 ;; Tracked objects:
  6733 ;;		On entry : 0/0
  6734 ;;		On exit  : 0/0
  6735 ;;		Unchanged: 0/0
  6736 ;; Data sizes:     COMRAM   BANK0   BANK1   BANK2   BANK3   BANK4   BANK5   BANK6   BANK7   BANK8   BANK9  BANK10  BANK1
      +1  BANK12  BANK13  BANK14  BANK15
  6737 ;;      Params:         0       0       0       0       0       0       0       0       0       0       0       0       
      +0       0       0       0       0
  6738 ;;      Locals:         0       0       0       0       0       0       0       0       0       0       0       0       
      +0       0       0       0       0
  6739 ;;      Temps:          0       0       0       0       0       0       0       0       0       0       0       0       
      +0       0       0       0       0
  6740 ;;      Totals:         0       0       0       0       0       0       0       0       0       0       0       0       
      +0       0       0       0       0
  6741 ;;Total ram usage:        0 bytes
  6742 ;; Hardware stack levels used: 1
  6743 ;; This function calls:
  6744 ;;		Nothing
  6745 ;; This function is called by:
  6746 ;;		_InterruptManager
  6747 ;; This function uses a non-reentrant model
  6748 ;;
  6749                           
  6750                           	psect	text49
  6751   002924                     __ptext49:
  6752                           	callstack 0
  6753   002924                     _I2C_MODULE_TR_ISR:
  6754                           	callstack 23
  6755   002924                     
  6756                           ;MCAL_Layer/MSSP_I2C/hal_i2c.c: 243: (PIR1bits.SSPIF = 0);
  6757   002924  969E               	bcf	158,3,c	;volatile
  6758   002926  0012               	return		;funcret
  6759   002928                     __end_of_I2C_MODULE_TR_ISR:
  6760                           	callstack 0
  6761                           
  6762 ;; *************** function _I2C_BUS_COLLISION_ISR *****************
  6763 ;; Defined at:
  6764 ;;		line 233 in file "MCAL_Layer/MSSP_I2C/hal_i2c.c"
  6765 ;; Parameters:    Size  Location     Type
  6766 ;;		None
  6767 ;; Auto vars:     Size  Location     Type
  6768 ;;		None
  6769 ;; Return value:  Size  Location     Type
  6770 ;;                  1    wreg      void 
  6771 ;; Registers used:
  6772 ;;		None
  6773 ;; Tracked objects:
  6774 ;;		On entry : 0/0
  6775 ;;		On exit  : 0/0
  6776 ;;		Unchanged: 0/0
  6777 ;; Data sizes:     COMRAM   BANK0   BANK1   BANK2   BANK3   BANK4   BANK5   BANK6   BANK7   BANK8   BANK9  BANK10  BANK1
      +1  BANK12  BANK13  BANK14  BANK15
  6778 ;;      Params:         0       0       0       0       0       0       0       0       0       0       0       0       
      +0       0       0       0       0
  6779 ;;      Locals:         0       0       0       0       0       0       0       0       0       0       0       0       
      +0       0       0       0       0
  6780 ;;      Temps:          0       0       0       0       0       0       0       0       0       0       0       0       
      +0       0       0       0       0
  6781 ;;      Totals:         0       0       0       0       0       0       0       0       0       0       0       0       
      +0       0       0       0       0
  6782 ;;Total ram usage:        0 bytes
  6783 ;; Hardware stack levels used: 1
  6784 ;; This function calls:
  6785 ;;		Nothing
  6786 ;; This function is called by:
  6787 ;;		_InterruptManager
  6788 ;; This function uses a non-reentrant model
  6789 ;;
  6790                           
  6791                           	psect	text50
  6792   002928                     __ptext50:
  6793                           	callstack 0
  6794   002928                     _I2C_BUS_COLLISION_ISR:
  6795                           	callstack 23
  6796   002928                     
  6797                           ;MCAL_Layer/MSSP_I2C/hal_i2c.c: 234: (PIR2bits.BCLIF = 0);
  6798   002928  96A1               	bcf	161,3,c	;volatile
  6799   00292A  0012               	return		;funcret
  6800   00292C                     __end_of_I2C_BUS_COLLISION_ISR:
  6801                           	callstack 0
  6802                           
  6803 ;; *************** function _EUSART_TX_ASY_ISR *****************
  6804 ;; Defined at:
  6805 ;;		line 267 in file "MCAL_Layer/EUSART/hal_usart.c"
  6806 ;; Parameters:    Size  Location     Type
  6807 ;;		None
  6808 ;; Auto vars:     Size  Location     Type
  6809 ;;		None
  6810 ;; Return value:  Size  Location     Type
  6811 ;;                  1    wreg      void 
  6812 ;; Registers used:
  6813 ;;		None
  6814 ;; Tracked objects:
  6815 ;;		On entry : 0/0
  6816 ;;		On exit  : 0/0
  6817 ;;		Unchanged: 0/0
  6818 ;; Data sizes:     COMRAM   BANK0   BANK1   BANK2   BANK3   BANK4   BANK5   BANK6   BANK7   BANK8   BANK9  BANK10  BANK1
      +1  BANK12  BANK13  BANK14  BANK15
  6819 ;;      Params:         0       0       0       0       0       0       0       0       0       0       0       0       
      +0       0       0       0       0
  6820 ;;      Locals:         0       0       0       0       0       0       0       0       0       0       0       0       
      +0       0       0       0       0
  6821 ;;      Temps:          0       0       0       0       0       0       0       0       0       0       0       0       
      +0       0       0       0       0
  6822 ;;      Totals:         0       0       0       0       0       0       0       0       0       0       0       0       
      +0       0       0       0       0
  6823 ;;Total ram usage:        0 bytes
  6824 ;; Hardware stack levels used: 1
  6825 ;; This function calls:
  6826 ;;		Nothing
  6827 ;; This function is called by:
  6828 ;;		_InterruptManager
  6829 ;; This function uses a non-reentrant model
  6830 ;;
  6831                           
  6832                           	psect	text51
  6833   00292C                     __ptext51:
  6834                           	callstack 0
  6835   00292C                     _EUSART_TX_ASY_ISR:
  6836                           	callstack 23
  6837   00292C                     
  6838                           ;MCAL_Layer/EUSART/hal_usart.c: 268: (PIE1bits.TXIE =0);
  6839   00292C  989D               	bcf	157,4,c	;volatile
  6840   00292E  0012               	return		;funcret
  6841   002930                     __end_of_EUSART_TX_ASY_ISR:
  6842                           	callstack 0
  6843                           
  6844 ;; *************** function _EUSART_RX_ASY_ISR *****************
  6845 ;; Defined at:
  6846 ;;		line 276 in file "MCAL_Layer/EUSART/hal_usart.c"
  6847 ;; Parameters:    Size  Location     Type
  6848 ;;		None
  6849 ;; Auto vars:     Size  Location     Type
  6850 ;;		None
  6851 ;; Return value:  Size  Location     Type
  6852 ;;                  1    wreg      void 
  6853 ;; Registers used:
  6854 ;;		wreg, status,2, status,0
  6855 ;; Tracked objects:
  6856 ;;		On entry : 0/0
  6857 ;;		On exit  : 0/0
  6858 ;;		Unchanged: 0/0
  6859 ;; Data sizes:     COMRAM   BANK0   BANK1   BANK2   BANK3   BANK4   BANK5   BANK6   BANK7   BANK8   BANK9  BANK10  BANK1
      +1  BANK12  BANK13  BANK14  BANK15
  6860 ;;      Params:         0       0       0       0       0       0       0       0       0       0       0       0       
      +0       0       0       0       0
  6861 ;;      Locals:         0       0       0       0       0       0       0       0       0       0       0       0       
      +0       0       0       0       0
  6862 ;;      Temps:          0       0       0       0       0       0       0       0       0       0       0       0       
      +0       0       0       0       0
  6863 ;;      Totals:         0       0       0       0       0       0       0       0       0       0       0       0       
      +0       0       0       0       0
  6864 ;;Total ram usage:        0 bytes
  6865 ;; Hardware stack levels used: 1
  6866 ;; This function calls:
  6867 ;;		Nothing
  6868 ;; This function is called by:
  6869 ;;		_InterruptManager
  6870 ;; This function uses a non-reentrant model
  6871 ;;
  6872                           
  6873                           	psect	text52
  6874   00293E                     __ptext52:
  6875                           	callstack 0
  6876   00293E                     _EUSART_RX_ASY_ISR:
  6877                           	callstack 23
  6878   00293E  0012               	return		;funcret
  6879   002940                     __end_of_EUSART_RX_ASY_ISR:
  6880                           	callstack 0
  6881                           
  6882 ;; *************** function _CCP2_ISR *****************
  6883 ;; Defined at:
  6884 ;;		line 188 in file "MCAL_Layer/CPP1/hal_ccp.c"
  6885 ;; Parameters:    Size  Location     Type
  6886 ;;		None
  6887 ;; Auto vars:     Size  Location     Type
  6888 ;;		None
  6889 ;; Return value:  Size  Location     Type
  6890 ;;                  1    wreg      void 
  6891 ;; Registers used:
  6892 ;;		None
  6893 ;; Tracked objects:
  6894 ;;		On entry : 0/0
  6895 ;;		On exit  : 0/0
  6896 ;;		Unchanged: 0/0
  6897 ;; Data sizes:     COMRAM   BANK0   BANK1   BANK2   BANK3   BANK4   BANK5   BANK6   BANK7   BANK8   BANK9  BANK10  BANK1
      +1  BANK12  BANK13  BANK14  BANK15
  6898 ;;      Params:         0       0       0       0       0       0       0       0       0       0       0       0       
      +0       0       0       0       0
  6899 ;;      Locals:         0       0       0       0       0       0       0       0       0       0       0       0       
      +0       0       0       0       0
  6900 ;;      Temps:          0       0       0       0       0       0       0       0       0       0       0       0       
      +0       0       0       0       0
  6901 ;;      Totals:         0       0       0       0       0       0       0       0       0       0       0       0       
      +0       0       0       0       0
  6902 ;;Total ram usage:        0 bytes
  6903 ;; Hardware stack levels used: 1
  6904 ;; This function calls:
  6905 ;;		Nothing
  6906 ;; This function is called by:
  6907 ;;		_InterruptManager
  6908 ;; This function uses a non-reentrant model
  6909 ;;
  6910                           
  6911                           	psect	text53
  6912   002930                     __ptext53:
  6913                           	callstack 0
  6914   002930                     _CCP2_ISR:
  6915                           	callstack 23
  6916   002930                     
  6917                           ;MCAL_Layer/CPP1/hal_ccp.c: 189: (PIR2bits.CCP2IF = 0 );
  6918   002930  90A1               	bcf	161,0,c	;volatile
  6919   002932  0012               	return		;funcret
  6920   002934                     __end_of_CCP2_ISR:
  6921                           	callstack 0
  6922                           
  6923 ;; *************** function _CCP1_ISR *****************
  6924 ;; Defined at:
  6925 ;;		line 179 in file "MCAL_Layer/CPP1/hal_ccp.c"
  6926 ;; Parameters:    Size  Location     Type
  6927 ;;		None
  6928 ;; Auto vars:     Size  Location     Type
  6929 ;;		None
  6930 ;; Return value:  Size  Location     Type
  6931 ;;                  1    wreg      void 
  6932 ;; Registers used:
  6933 ;;		None
  6934 ;; Tracked objects:
  6935 ;;		On entry : 0/0
  6936 ;;		On exit  : 0/0
  6937 ;;		Unchanged: 0/0
  6938 ;; Data sizes:     COMRAM   BANK0   BANK1   BANK2   BANK3   BANK4   BANK5   BANK6   BANK7   BANK8   BANK9  BANK10  BANK1
      +1  BANK12  BANK13  BANK14  BANK15
  6939 ;;      Params:         0       0       0       0       0       0       0       0       0       0       0       0       
      +0       0       0       0       0
  6940 ;;      Locals:         0       0       0       0       0       0       0       0       0       0       0       0       
      +0       0       0       0       0
  6941 ;;      Temps:          0       0       0       0       0       0       0       0       0       0       0       0       
      +0       0       0       0       0
  6942 ;;      Totals:         0       0       0       0       0       0       0       0       0       0       0       0       
      +0       0       0       0       0
  6943 ;;Total ram usage:        0 bytes
  6944 ;; Hardware stack levels used: 1
  6945 ;; This function calls:
  6946 ;;		Nothing
  6947 ;; This function is called by:
  6948 ;;		_InterruptManager
  6949 ;; This function uses a non-reentrant model
  6950 ;;
  6951                           
  6952                           	psect	text54
  6953   002934                     __ptext54:
  6954                           	callstack 0
  6955   002934                     _CCP1_ISR:
  6956                           	callstack 23
  6957   002934                     
  6958                           ;MCAL_Layer/CPP1/hal_ccp.c: 180: (PIR1bits.CCP1IF = 0 );
  6959   002934  949E               	bcf	158,2,c	;volatile
  6960   002936  0012               	return		;funcret
  6961   002938                     __end_of_CCP1_ISR:
  6962                           	callstack 0
  6963                           
  6964 ;; *************** function _ADC_ISR *****************
  6965 ;; Defined at:
  6966 ;;		line 248 in file "MCAL_Layer/ADC/hal_adc.c"
  6967 ;; Parameters:    Size  Location     Type
  6968 ;;		None
  6969 ;; Auto vars:     Size  Location     Type
  6970 ;;		None
  6971 ;; Return value:  Size  Location     Type
  6972 ;;                  1    wreg      void 
  6973 ;; Registers used:
  6974 ;;		None
  6975 ;; Tracked objects:
  6976 ;;		On entry : 0/0
  6977 ;;		On exit  : 0/0
  6978 ;;		Unchanged: 0/0
  6979 ;; Data sizes:     COMRAM   BANK0   BANK1   BANK2   BANK3   BANK4   BANK5   BANK6   BANK7   BANK8   BANK9  BANK10  BANK1
      +1  BANK12  BANK13  BANK14  BANK15
  6980 ;;      Params:         0       0       0       0       0       0       0       0       0       0       0       0       
      +0       0       0       0       0
  6981 ;;      Locals:         0       0       0       0       0       0       0       0       0       0       0       0       
      +0       0       0       0       0
  6982 ;;      Temps:          0       0       0       0       0       0       0       0       0       0       0       0       
      +0       0       0       0       0
  6983 ;;      Totals:         0       0       0       0       0       0       0       0       0       0       0       0       
      +0       0       0       0       0
  6984 ;;Total ram usage:        0 bytes
  6985 ;; Hardware stack levels used: 1
  6986 ;; This function calls:
  6987 ;;		Nothing
  6988 ;; This function is called by:
  6989 ;;		_InterruptManager
  6990 ;; This function uses a non-reentrant model
  6991 ;;
  6992                           
  6993                           	psect	text55
  6994   002938                     __ptext55:
  6995                           	callstack 0
  6996   002938                     _ADC_ISR:
  6997                           	callstack 23
  6998   002938                     
  6999                           ;MCAL_Layer/ADC/hal_adc.c: 249: (PIR1bits.ADIF = 0);
  7000   002938  9C9E               	bcf	158,6,c	;volatile
  7001   00293A  0012               	return		;funcret
  7002   00293C                     __end_of_ADC_ISR:
  7003                           	callstack 0
  7004                           
  7005                           	psect	rparam
  7006   000000                     
  7007                           	psect	temp
  7008   00007B                     btemp:
  7009                           	callstack 0
  7010   00007B                     	ds	1
  7011   000000                     int$flags	set	btemp
  7012   000000                     wtemp8	set	btemp+1
  7013   000000                     ttemp5	set	btemp+1
  7014   000000                     ttemp6	set	btemp+4
  7015   000000                     ttemp7	set	btemp+8
  7016                           
  7017                           	psect	config
  7018                           
  7019                           ; Padding undefined space
  7020   300000                     	org	3145728
  7021   300000  FF                 	db	255
  7022                           
  7023                           ;Config register CONFIG1H @ 0x300001
  7024                           ;	Oscillator Selection bits
  7025                           ;	OSC = HS, HS oscillator
  7026                           ;	Fail-Safe Clock Monitor Enable bit
  7027                           ;	FCMEN = OFF, Fail-Safe Clock Monitor disabled
  7028                           ;	Internal/External Oscillator Switchover bit
  7029                           ;	IESO = OFF, Oscillator Switchover mode disabled
  7030   300001                     	org	3145729
  7031   300001  02                 	db	2
  7032                           
  7033                           ;Config register CONFIG2L @ 0x300002
  7034                           ;	Power-up Timer Enable bit
  7035                           ;	PWRT = OFF, PWRT disabled
  7036                           ;	Brown-out Reset Enable bits
  7037                           ;	BOREN = OFF, Brown-out Reset disabled in hardware and software
  7038                           ;	Brown Out Reset Voltage bits
  7039                           ;	BORV = 1, 
  7040   300002                     	org	3145730
  7041   300002  09                 	db	9
  7042                           
  7043                           ;Config register CONFIG2H @ 0x300003
  7044                           ;	Watchdog Timer Enable bit
  7045                           ;	WDT = OFF, WDT disabled (control is placed on the SWDTEN bit)
  7046                           ;	Watchdog Timer Postscale Select bits
  7047                           ;	WDTPS = 32768, 1:32768
  7048   300003                     	org	3145731
  7049   300003  1E                 	db	30
  7050                           
  7051                           ; Padding undefined space
  7052   300004                     	org	3145732
  7053   300004  FF                 	db	255
  7054                           
  7055                           ;Config register CONFIG3H @ 0x300005
  7056                           ;	CCP2 MUX bit
  7057                           ;	CCP2MX = PORTC, CCP2 input/output is multiplexed with RC1
  7058                           ;	PORTB A/D Enable bit
  7059                           ;	PBADEN = OFF, PORTB<4:0> pins are configured as digital I/O on Reset
  7060                           ;	Low-Power Timer1 Oscillator Enable bit
  7061                           ;	LPT1OSC = OFF, Timer1 configured for higher power operation
  7062                           ;	MCLR Pin Enable bit
  7063                           ;	MCLRE = ON, MCLR pin enabled; RE3 input pin disabled
  7064   300005                     	org	3145733
  7065   300005  81                 	db	129
  7066                           
  7067                           ;Config register CONFIG4L @ 0x300006
  7068                           ;	Stack Full/Underflow Reset Enable bit
  7069                           ;	STVREN = ON, Stack full/underflow will cause Reset
  7070                           ;	Single-Supply ICSP Enable bit
  7071                           ;	LVP = OFF, Single-Supply ICSP disabled
  7072                           ;	Extended Instruction Set Enable bit
  7073                           ;	XINST = OFF, Instruction set extension and Indexed Addressing mode disabled (Legacy mo
      +                          de)
  7074                           ;	Background Debugger Enable bit
  7075                           ;	DEBUG = 0x1, unprogrammed default
  7076   300006                     	org	3145734
  7077   300006  81                 	db	129
  7078                           
  7079                           ; Padding undefined space
  7080   300007                     	org	3145735
  7081   300007  FF                 	db	255
  7082                           
  7083                           ;Config register CONFIG5L @ 0x300008
  7084                           ;	Code Protection bit
  7085                           ;	CP0 = OFF, Block 0 (000800-003FFFh) not code-protected
  7086                           ;	Code Protection bit
  7087                           ;	CP1 = OFF, Block 1 (004000-007FFFh) not code-protected
  7088                           ;	Code Protection bit
  7089                           ;	CP2 = OFF, Block 2 (008000-00BFFFh) not code-protected
  7090                           ;	Code Protection bit
  7091                           ;	CP3 = OFF, Block 3 (00C000-00FFFFh) not code-protected
  7092   300008                     	org	3145736
  7093   300008  0F                 	db	15
  7094                           
  7095                           ;Config register CONFIG5H @ 0x300009
  7096                           ;	Boot Block Code Protection bit
  7097                           ;	CPB = OFF, Boot block (000000-0007FFh) not code-protected
  7098                           ;	Data EEPROM Code Protection bit
  7099                           ;	CPD = OFF, Data EEPROM not code-protected
  7100   300009                     	org	3145737
  7101   300009  C0                 	db	192
  7102                           
  7103                           ;Config register CONFIG6L @ 0x30000A
  7104                           ;	Write Protection bit
  7105                           ;	WRT0 = OFF, Block 0 (000800-003FFFh) not write-protected
  7106                           ;	Write Protection bit
  7107                           ;	WRT1 = OFF, Block 1 (004000-007FFFh) not write-protected
  7108                           ;	Write Protection bit
  7109                           ;	WRT2 = OFF, Block 2 (008000-00BFFFh) not write-protected
  7110                           ;	Write Protection bit
  7111                           ;	WRT3 = OFF, Block 3 (00C000-00FFFFh) not write-protected
  7112   30000A                     	org	3145738
  7113   30000A  0F                 	db	15
  7114                           
  7115                           ;Config register CONFIG6H @ 0x30000B
  7116                           ;	Configuration Register Write Protection bit
  7117                           ;	WRTC = OFF, Configuration registers (300000-3000FFh) not write-protected
  7118                           ;	Boot Block Write Protection bit
  7119                           ;	WRTB = OFF, Boot Block (000000-0007FFh) not write-protected
  7120                           ;	Data EEPROM Write Protection bit
  7121                           ;	WRTD = OFF, Data EEPROM not write-protected
  7122   30000B                     	org	3145739
  7123   30000B  E0                 	db	224
  7124                           
  7125                           ;Config register CONFIG7L @ 0x30000C
  7126                           ;	Table Read Protection bit
  7127                           ;	EBTR0 = OFF, Block 0 (000800-003FFFh) not protected from table reads executed in other
      +                           blocks
  7128                           ;	Table Read Protection bit
  7129                           ;	EBTR1 = OFF, Block 1 (004000-007FFFh) not protected from table reads executed in other
      +                           blocks
  7130                           ;	Table Read Protection bit
  7131                           ;	EBTR2 = OFF, Block 2 (008000-00BFFFh) not protected from table reads executed in other
      +                           blocks
  7132                           ;	Table Read Protection bit
  7133                           ;	EBTR3 = OFF, Block 3 (00C000-00FFFFh) not protected from table reads executed in other
      +                           blocks
  7134   30000C                     	org	3145740
  7135   30000C  0F                 	db	15
  7136                           
  7137                           ;Config register CONFIG7H @ 0x30000D
  7138                           ;	Boot Block Table Read Protection bit
  7139                           ;	EBTRB = OFF, Boot Block (000000-0007FFh) not protected from table reads executed in ot
      +                          her blocks
  7140   30000D                     	org	3145741
  7141   30000D  40                 	db	64
  7142                           tosu	equ	0xFFF
  7143                           tosh	equ	0xFFE
  7144                           tosl	equ	0xFFD
  7145                           stkptr	equ	0xFFC
  7146                           pclatu	equ	0xFFB
  7147                           pclath	equ	0xFFA
  7148                           pcl	equ	0xFF9
  7149                           tblptru	equ	0xFF8
  7150                           tblptrh	equ	0xFF7
  7151                           tblptrl	equ	0xFF6
  7152                           tablat	equ	0xFF5
  7153                           prodh	equ	0xFF4
  7154                           prodl	equ	0xFF3
  7155                           indf0	equ	0xFEF
  7156                           postinc0	equ	0xFEE
  7157                           postdec0	equ	0xFED
  7158                           preinc0	equ	0xFEC
  7159                           plusw0	equ	0xFEB
  7160                           fsr0h	equ	0xFEA
  7161                           fsr0l	equ	0xFE9
  7162                           wreg	equ	0xFE8
  7163                           indf1	equ	0xFE7
  7164                           postinc1	equ	0xFE6
  7165                           postdec1	equ	0xFE5
  7166                           preinc1	equ	0xFE4
  7167                           plusw1	equ	0xFE3
  7168                           fsr1h	equ	0xFE2
  7169                           fsr1l	equ	0xFE1
  7170                           bsr	equ	0xFE0
  7171                           indf2	equ	0xFDF
  7172                           postinc2	equ	0xFDE
  7173                           postdec2	equ	0xFDD
  7174                           preinc2	equ	0xFDC
  7175                           plusw2	equ	0xFDB
  7176                           fsr2h	equ	0xFDA
  7177                           fsr2l	equ	0xFD9
  7178                           status	equ	0xFD8

Data Sizes:
    Strings     74
    Constant    16
    Data        65
    BSS         125
    Persistent  0
    Stack       0

Auto Spaces:
    Space          Size  Autos    Used
    COMRAM          126     47     122
    BANK0           128      4     119
    BANK1           256      0       0
    BANK2           256      0       0
    BANK3           256      0       0
    BANK4           256      0       0
    BANK5           256      0       0
    BANK6           256      0       0
    BANK7           256      0       0
    BANK8           256      0       0
    BANK9           256      0       0
    BANK10          256      0       0
    BANK11          256      0       0
    BANK12          256      0       0
    BANK13          256      0       0
    BANK14          256      0       0
    BANK15          128      0       0

Pointer List with Targets:

    Adc_Get_conversion_result@adc_obj$ACD_INTERRUPT_HANDLER	PTR FTN()void  size(2) Largest target is 0

    ADC_INIT@adc_obj$ACD_INTERRUPT_HANDLER	PTR FTN()void  size(2) Largest target is 0

    ADC_INTERRUPT_HANDLERF	PTR FTN()void  size(2) Largest target is 1
		 -> NULL(), 

    adc_select_format@adc_obj$ACD_INTERRUPT_HANDLER	PTR FTN()void  size(2) Largest target is 0

    adc_select_Voltage@adc_obj$ACD_INTERRUPT_HANDLER	PTR FTN()void  size(2) Largest target is 0

    capture_is_ready@_ccp$CCP1_INTERRUPT_HANDLER	PTR FTN()void  size(2) Largest target is 0

    capture_is_ready@_ccp$CCP2_INTERRUPT_HANDLER	PTR FTN()void  size(2) Largest target is 0

    capture_read_value@_ccp$CCP1_INTERRUPT_HANDLER	PTR FTN()void  size(2) Largest target is 0

    capture_read_value@_ccp$CCP2_INTERRUPT_HANDLER	PTR FTN()void  size(2) Largest target is 0

    CCP1_INTERRUPT_HANDLERF	PTR FTN()void  size(2) Largest target is 1
		 -> NULL(), 

    CCP2_INTERRUPT_HANDLERF	PTR FTN()void  size(2) Largest target is 1
		 -> NULL(), 

    CCP_DEINIt@_ccp$CCP1_INTERRUPT_HANDLER	PTR FTN()void  size(2) Largest target is 0

    CCP_DEINIt@_ccp$CCP2_INTERRUPT_HANDLER	PTR FTN()void  size(2) Largest target is 0

    CCP_INIt@_ccp$CCP1_INTERRUPT_HANDLER	PTR FTN()void  size(2) Largest target is 0

    CCP_INIt@_ccp$CCP2_INTERRUPT_HANDLER	PTR FTN()void  size(2) Largest target is 0

    ccp_interrupt@_ccp$CCP1_INTERRUPT_HANDLER	PTR FTN()void  size(2) Largest target is 0

    ccp_interrupt@_ccp$CCP2_INTERRUPT_HANDLER	PTR FTN()void  size(2) Largest target is 0

    configue_timer_mode@TMR$TIMER3_INTERRUPT_HANDLER	PTR FTN()void  size(2) Largest target is 0

    configure_mode@_ccp$CCP1_INTERRUPT_HANDLER	PTR FTN()void  size(2) Largest target is 0

    configure_mode@_ccp$CCP2_INTERRUPT_HANDLER	PTR FTN()void  size(2) Largest target is 0

    convert_uint8_to_string@str	PTR unsigned char  size(1) Largest target is 5
		 -> str(BANK0[5]), 

    EEPROM_Read_Data@ddata	PTR unsigned char  size(1) Largest target is 1
		 -> num_of_incor(COMRAM[1]), 

    EUSART_ASYC_Rx_init@_eusa$EUSART_FRAMING_ERROR_INTERRUPT_HANDLER	PTR FTN()void  size(2) Largest target is 0

    EUSART_ASYC_Rx_init@_eusa$EUSART_OVERRUN_ERROR_INTERRUPT_HANDLER	PTR FTN()void  size(2) Largest target is 0

    EUSART_ASYC_Rx_init@_eusa$EUSART_RX_INTERRUPT_HANDLER	PTR FTN()void  size(2) Largest target is 0

    EUSART_ASYC_Rx_init@_eusa$EUSART_TX_INTERRUPT_HANDLER	PTR FTN()void  size(2) Largest target is 0

    EUSART_ASYC_Tx_init@_eusa$EUSART_FRAMING_ERROR_INTERRUPT_HANDLER	PTR FTN()void  size(2) Largest target is 0

    EUSART_ASYC_Tx_init@_eusa$EUSART_OVERRUN_ERROR_INTERRUPT_HANDLER	PTR FTN()void  size(2) Largest target is 0

    EUSART_ASYC_Tx_init@_eusa$EUSART_RX_INTERRUPT_HANDLER	PTR FTN()void  size(2) Largest target is 0

    EUSART_ASYC_Tx_init@_eusa$EUSART_TX_INTERRUPT_HANDLER	PTR FTN()void  size(2) Largest target is 0

    eusart_baudrate_configuration@_eusa$EUSART_FRAMING_ERROR_INTERRUPT_HANDLER	PTR FTN()void  size(2) Largest target is 0

    eusart_baudrate_configuration@_eusa$EUSART_OVERRUN_ERROR_INTERRUPT_HANDLER	PTR FTN()void  size(2) Largest target is 0

    eusart_baudrate_configuration@_eusa$EUSART_RX_INTERRUPT_HANDLER	PTR FTN()void  size(2) Largest target is 0

    eusart_baudrate_configuration@_eusa$EUSART_TX_INTERRUPT_HANDLER	PTR FTN()void  size(2) Largest target is 0

    EUSART_FRAMING_ERROR_INTERRUPT_HANDLERF	PTR FTN()void  size(2) Largest target is 1
		 -> NULL(), 

    EUSART_OVERRUN_ERROR_INTERRUPT_HANDLERF	PTR FTN()void  size(2) Largest target is 1
		 -> NULL(), 

    EUSART_RX_INTERRUPT_HANDLERF	PTR FTN()void  size(2) Largest target is 1
		 -> NULL(), 

    EUSART_TX_INTERRUPT_HANDLERF	PTR FTN()void  size(2) Largest target is 1
		 -> NULL(), 

    f$.$buffer	PTR unsigned char  size(2) Largest target is 0

    f$.$source	PTR const unsigned char  size(2) Largest target is 0

    fputc@fp	PTR struct _IO_FILE size(1) Largest target is 12
		 -> sprintf@f(COMRAM[12]), 

    fputc@fp$.$buffer	PTR unsigned char  size(2) Largest target is 0

    fputc@fp$.$source	PTR const unsigned char  size(2) Largest target is 0

    gpio_pin_direction_intialize@__pin_t	PTR const struct . size(1) Largest target is 8
		 -> keypad_1(BANK0[8]), keypad_1$pad_column(BANK0[4]), keypad_1$pad_row(BANK0[4]), lcd_2(BANK0[6]), 
		 -> lcd_2$lcd_pins(BANK0[4]), lcd_2$pin_en(BANK0[1]), lcd_2$pin_Rs(BANK0[1]), led_intalize@obj(COMRAM[1]), 
		 -> motor_1(COMRAM[2]), motor_1$motors(COMRAM[2]), motor_2(COMRAM[2]), motor_2$motors(COMRAM[2]), 
		 -> relay_initalize@obj(COMRAM[1]), spi_master_mode_configuration@SDI(COMRAM[1]), spi_master_mode_configuration@SDO(COMRAM[1]), spi_master_mode_configuration@SKL(COMRAM[1]), 
		 -> spi_slave_mode_configuration@SDI(COMRAM[1]), spi_slave_mode_configuration@SDO(COMRAM[1]), spi_slave_mode_configuration@SKL(COMRAM[1]), spi_slave_mode_configuration@SS_PIN(COMRAM[1]), 

    gpio_pin_intialize@_pin_t	PTR struct . size(1) Largest target is 8
		 -> keypad_1(BANK0[8]), keypad_1$pad_row(BANK0[4]), lcd_2(BANK0[6]), lcd_2$lcd_pins(BANK0[4]), 
		 -> lcd_2$pin_en(BANK0[1]), lcd_2$pin_Rs(BANK0[1]), led_intalize@obj(COMRAM[1]), motor_1(COMRAM[2]), 
		 -> motor_1$motors(COMRAM[2]), motor_2(COMRAM[2]), motor_2$motors(COMRAM[2]), relay_initalize@obj(COMRAM[1]), 
		 -> spi_master_mode_configuration@SDI(COMRAM[1]), spi_master_mode_configuration@SDO(COMRAM[1]), spi_master_mode_configuration@SKL(COMRAM[1]), spi_slave_mode_configuration@SDI(COMRAM[1]), 
		 -> spi_slave_mode_configuration@SDO(COMRAM[1]), spi_slave_mode_configuration@SKL(COMRAM[1]), spi_slave_mode_configuration@SS_PIN(COMRAM[1]), 

    gpio_pin_read_logic@_pin_t	PTR const struct . size(1) Largest target is 8
		 -> keypad_1(BANK0[8]), keypad_1$pad_column(BANK0[4]), 

    gpio_pin_read_logic@logic	PTR enum E2978 size(1) Largest target is 1
		 -> button_read_state@btn_logic(COMRAM[1]), keypad_get_value@ret_logic(COMRAM[1]), 

    gpio_pin_write_logic@_pin_t	PTR const struct . size(1) Largest target is 8
		 -> keypad_1(BANK0[8]), keypad_1$pad_row(BANK0[4]), lcd_2(BANK0[6]), lcd_2$lcd_pins(BANK0[4]), 
		 -> lcd_2$pin_en(BANK0[1]), lcd_2$pin_Rs(BANK0[1]), led_intalize@obj(COMRAM[1]), led_off@obj(COMRAM[1]), 
		 -> led_on@obj(COMRAM[1]), motor_1(COMRAM[2]), motor_1$motors(COMRAM[2]), motor_2(COMRAM[2]), 
		 -> motor_2$motors(COMRAM[2]), relay_initalize@obj(COMRAM[1]), relay_off@obj(COMRAM[1]), relay_on@obj(COMRAM[1]), 
		 -> spi_master_mode_configuration@SDI(COMRAM[1]), spi_master_mode_configuration@SDO(COMRAM[1]), spi_master_mode_configuration@SKL(COMRAM[1]), spi_slave_mode_configuration@SDI(COMRAM[1]), 
		 -> spi_slave_mode_configuration@SDO(COMRAM[1]), spi_slave_mode_configuration@SKL(COMRAM[1]), spi_slave_mode_configuration@SS_PIN(COMRAM[1]), 

    I2C_INTERRUPT_HANDLERF	PTR FTN()void  size(2) Largest target is 1
		 -> NULL(), 

    I2C_Receive_Overflow_IndicatoR_HANDLERF	PTR FTN()void  size(2) Largest target is 1
		 -> NULL(), 

    I2C_Write_Collision_HANDLERF	PTR FTN()void  size(2) Largest target is 1
		 -> NULL(), 

    INT0_InterruptHandeler	PTR FTN()void  size(2) Largest target is 1
		 -> NULL(), 

    INT1_InterruptHandeler	PTR FTN()void  size(2) Largest target is 1
		 -> NULL(), 

    INT2_InterruptHandeler	PTR FTN()void  size(2) Largest target is 1
		 -> NULL(), 

    Interrupt_INTx_Clear_Flag@init_obj$EXT_InterruptHandler	PTR FTN()void  size(2) Largest target is 0

    Interrupt_INTx_Disable@init_obj$EXT_InterruptHandler	PTR FTN()void  size(2) Largest target is 0

    Interrupt_INTx_Edge_init@init_obj$EXT_InterruptHandler	PTR FTN()void  size(2) Largest target is 0

    Interrupt_INTx_Enable@init_obj$EXT_InterruptHandler	PTR FTN()void  size(2) Largest target is 0

    Interrupt_INTx_Pin_init@init_obj$EXT_InterruptHandler	PTR FTN()void  size(2) Largest target is 0

    Interrupt_INTx_SetInterruptHandeler@init_obj$EXT_InterruptHandler	PTR FTN()void  size(2) Largest target is 0

    Interrupt_RBx_Init@init_obj$EXT_InterruptHandler_High	PTR FTN()void  size(2) Largest target is 0

    Interrupt_RBx_Init@init_obj$EXT_InterruptHandler_Low	PTR FTN()void  size(2) Largest target is 0

    Interrupt_RBx_Pin_init@init_obj$EXT_InterruptHandler_High	PTR FTN()void  size(2) Largest target is 0

    Interrupt_RBx_Pin_init@init_obj$EXT_InterruptHandler_Low	PTR FTN()void  size(2) Largest target is 0

    keypad_get_value@keypad	PTR const struct . size(1) Largest target is 8
		 -> keypad_1(BANK0[8]), 

    keypad_get_value@value	PTR unsigned char  size(1) Largest target is 5
		 -> enter_password(BANK0[5]), 

    keypad_initialize@keypad	PTR const struct . size(1) Largest target is 8
		 -> keypad_1(BANK0[8]), 

    lat_registers	PTR volatile unsigned char [5] size(2) Largest target is 1
		 -> LATA(BITBIGSFRlllll[1]), LATB(BITBIGSFRllllh[1]), LATC(BITBIGSFRllllh[1]), LATD(BITBIGSFRllllh[1]), 
		 -> LATE(BITBIGSFRllllh[1]), 

    lcd_4bit_initialize@lcd	PTR const struct . size(1) Largest target is 6
		 -> lcd_2(BANK0[6]), 

    lcd_4bit_send_command@lcd	PTR const struct . size(1) Largest target is 6
		 -> lcd_2(BANK0[6]), 

    lcd_4bit_send_data_char@lcd	PTR const struct . size(1) Largest target is 6
		 -> lcd_2(BANK0[6]), 

    lcd_4bit_send_data_char_posit@lcd	PTR const struct . size(1) Largest target is 6
		 -> lcd_2(BANK0[6]), 

    lcd_4bit_send_data_string@data	PTR unsigned char  size(1) Largest target is 13
		 -> STR_8(CODE[13]), 

    lcd_4bit_send_data_string@lcd	PTR const struct . size(1) Largest target is 6
		 -> lcd_2(BANK0[6]), 

    lcd_4bit_send_data_string_posit@data	PTR unsigned char  size(2) Largest target is 17
		 -> str(BANK0[5]), STR_4(CODE[15]), STR_5(CODE[17]), STR_6(CODE[16]), 
		 -> STR_7(CODE[10]), 

    lcd_4bit_send_data_string_posit@lcd	PTR const struct . size(1) Largest target is 6
		 -> lcd_2(BANK0[6]), 

    lcd_send_4bit_command_data@lcd	PTR const struct . size(1) Largest target is 6
		 -> lcd_2(BANK0[6]), 

    lcd_send_4bit_enable@lcd	PTR const struct . size(1) Largest target is 6
		 -> lcd_2(BANK0[6]), 

    lcd_set_cursor_4bit@lcd	PTR const struct . size(1) Largest target is 6
		 -> lcd_2(BANK0[6]), 

    led_intalize@led	PTR const struct . size(1) Largest target is 1
		 -> green(COMRAM[1]), red(COMRAM[1]), 

    led_on@led	PTR const struct . size(1) Largest target is 1
		 -> green(COMRAM[1]), red(COMRAM[1]), 

    memset@dest	PTR void  size(1) Largest target is 5
		 -> str(BANK0[5]), 

    memset@p	PTR unsigned char  size(1) Largest target is 5
		 -> str(BANK0[5]), 

    MODE_configure@hal_timer1$F3917@TMR$TIMER1_INTERRUPT_HANDLER	PTR FTN()void  size(2) Largest target is 0

    MODE_configure@TMR$TIMER0_INTERRUPT_HANDLER	PTR FTN()void  size(2) Largest target is 0

    motor_initialize@motor	PTR const struct . size(1) Largest target is 2
		 -> motor_1(COMRAM[2]), motor_2(COMRAM[2]), 

    motor_move_left@motor	PTR const struct . size(1) Largest target is 2
		 -> motor_1(COMRAM[2]), motor_2(COMRAM[2]), 

    motor_move_right@motor	PTR const struct . size(1) Largest target is 2
		 -> motor_1(COMRAM[2]), motor_2(COMRAM[2]), 

    MSSP_12C_Interrupt_configuration@i2c$I2C_INTERRUPT_HANDLER	PTR FTN()void  size(2) Largest target is 0

    MSSP_12C_Interrupt_configuration@i2c$I2C_Receive_Overflow_IndicatoR_HANDLER	PTR FTN()void  size(2) Largest target is 0

    MSSP_12C_Interrupt_configuration@i2c$I2C_Write_Collision_HANDLER	PTR FTN()void  size(2) Largest target is 0

    MSSP_I2c_MODE_Init@i2c$I2C_INTERRUPT_HANDLER	PTR FTN()void  size(2) Largest target is 0

    MSSP_I2c_MODE_Init@i2c$I2C_Receive_Overflow_IndicatoR_HANDLER	PTR FTN()void  size(2) Largest target is 0

    MSSP_I2c_MODE_Init@i2c$I2C_Write_Collision_HANDLER	PTR FTN()void  size(2) Largest target is 0

    MSSP_SPI_INTERRUPT_HANDLERF	PTR FTN()void  size(2) Largest target is 1
		 -> NULL(), 

    OSC_configure@TMR$TIMER1_INTERRUPT_HANDLER	PTR FTN()void  size(2) Largest target is 0

    port_registers	PTR volatile unsigned char [5] size(2) Largest target is 1
		 -> PORTA(BITBIGSFRlllll[1]), PORTB(BITBIGSFRlllll[1]), PORTC(BITBIGSFRlllll[1]), PORTD(BITBIGSFRlllll[1]), 
		 -> PORTE(BITBIGSFRlllll[1]), 

    Prescaler_configure@TMR$TIMER0_INTERRUPT_HANDLER	PTR FTN()void  size(2) Largest target is 0

    RB4_InterruptHandeler_High	PTR FTN()void  size(2) Largest target is 1
		 -> NULL(), 

    RB4_InterruptHandeler_Low	PTR FTN()void  size(2) Largest target is 1
		 -> NULL(), 

    RB5_InterruptHandeler_High	PTR FTN()void  size(2) Largest target is 1
		 -> NULL(), 

    RB5_InterruptHandeler_Low	PTR FTN()void  size(2) Largest target is 1
		 -> NULL(), 

    RB6_InterruptHandeler_High	PTR FTN()void  size(2) Largest target is 1
		 -> NULL(), 

    RB6_InterruptHandeler_Low	PTR FTN()void  size(2) Largest target is 1
		 -> NULL(), 

    RB7_InterruptHandeler_High	PTR FTN()void  size(2) Largest target is 1
		 -> NULL(), 

    RB7_InterruptHandeler_Low	PTR FTN()void  size(2) Largest target is 1
		 -> NULL(), 

    register_configure@hal_timer1$F3923@TMR$TIMER1_INTERRUPT_HANDLER	PTR FTN()void  size(2) Largest target is 0

    register_configure@hal_timer3$F4286@TMR$TIMER3_INTERRUPT_HANDLER	PTR FTN()void  size(2) Largest target is 0

    register_configure@TMR$TIMER0_INTERRUPT_HANDLER	PTR FTN()void  size(2) Largest target is 0

    S1081$CCP1_INTERRUPT_HANDLER	PTR FTN()void  size(2) Largest target is 0

    S1081$CCP2_INTERRUPT_HANDLER	PTR FTN()void  size(2) Largest target is 0

    S1662$EUSART_FRAMING_ERROR_INTERRUPT_HANDLER	PTR FTN()void  size(2) Largest target is 0

    S1662$EUSART_OVERRUN_ERROR_INTERRUPT_HANDLER	PTR FTN()void  size(2) Largest target is 0

    S1662$EUSART_RX_INTERRUPT_HANDLER	PTR FTN()void  size(2) Largest target is 0

    S1662$EUSART_TX_INTERRUPT_HANDLER	PTR FTN()void  size(2) Largest target is 0

    S2291$EXT_InterruptHandler	PTR FTN()void  size(2) Largest target is 0

    S2329$EXT_InterruptHandler_High	PTR FTN()void  size(2) Largest target is 0

    S2329$EXT_InterruptHandler_Low	PTR FTN()void  size(2) Largest target is 0

    S2925$I2C_INTERRUPT_HANDLER	PTR FTN()void  size(2) Largest target is 0

    S2925$I2C_Receive_Overflow_IndicatoR_HANDLER	PTR FTN()void  size(2) Largest target is 0

    S2925$I2C_Write_Collision_HANDLER	PTR FTN()void  size(2) Largest target is 0

    S3350$MSSP_SPI_INTERRUPT_HANDLER	PTR FTN()void  size(2) Largest target is 0

    S3686$TIMER0_INTERRUPT_HANDLER	PTR FTN()void  size(2) Largest target is 0

    S3856$TIMER1_INTERRUPT_HANDLER	PTR FTN()void  size(2) Largest target is 0

    S4102$TIMER2_INTERRUPT_HANDLER	PTR FTN()void  size(2) Largest target is 0

    S4236$TIMER3_INTERRUPT_HANDLER	PTR FTN()void  size(2) Largest target is 0

    S4975$buffer	PTR unsigned char  size(2) Largest target is 0

    S4975$source	PTR const unsigned char  size(2) Largest target is 0

    S659$ACD_INTERRUPT_HANDLER	PTR FTN()void  size(2) Largest target is 0

    selected_timer@_ccp$CCP1_INTERRUPT_HANDLER	PTR FTN()void  size(2) Largest target is 0

    selected_timer@_ccp$CCP2_INTERRUPT_HANDLER	PTR FTN()void  size(2) Largest target is 0

    sp__memset	PTR void  size(1) Largest target is 5
		 -> str(BANK0[5]), 

    Spi_Init@spi$MSSP_SPI_INTERRUPT_HANDLER	PTR FTN()void  size(2) Largest target is 0

    spi_interrupt_configuration@spi$MSSP_SPI_INTERRUPT_HANDLER	PTR FTN()void  size(2) Largest target is 0

    spi_slave_mode_configuration@spi$MSSP_SPI_INTERRUPT_HANDLER	PTR FTN()void  size(2) Largest target is 0

    sprintf@ap	PTR void [1] size(1) Largest target is 2
		 -> ?_sprintf(COMRAM[2]), 

    sprintf@fmt	PTR const unsigned char  size(1) Largest target is 3
		 -> STR_1(CODE[3]), STR_2(CODE[3]), STR_3(CODE[3]), 

    sprintf@s	PTR unsigned char  size(1) Largest target is 6
		 -> convert_uint16_to_string@temp(COMRAM[6]), str(BANK0[5]), 

    TIMER0_INTERRUPPT	PTR FTN()void  size(2) Largest target is 1
		 -> NULL(), 

    TIMER1_INTERRUPPT_HANDLERF	PTR FTN()void  size(2) Largest target is 1
		 -> NULL(), 

    TIMER3_INTERRUPT_HANDLERF	PTR FTN()void  size(2) Largest target is 1
		 -> NULL(), 

    TMR0_Init@TMR$TIMER0_INTERRUPT_HANDLER	PTR FTN()void  size(2) Largest target is 0

    TMR1_Init@TMR$TIMER1_INTERRUPT_HANDLER	PTR FTN()void  size(2) Largest target is 0

    TMR2_Init@TMR$TIMER2_INTERRUPT_HANDLER	PTR FTN()void  size(2) Largest target is 0

    TMR2_INTERRUPT_HANDLER	PTR FTN()void  size(2) Largest target is 1
		 -> NULL(), 

    TMR3_Init@TMR$TIMER3_INTERRUPT_HANDLER	PTR FTN()void  size(2) Largest target is 0

    tris_registers	PTR volatile unsigned char [5] size(2) Largest target is 1
		 -> TRISA(BITBIGSFRlllll[1]), TRISB(ABS[1]), TRISC(SFR[1]), TRISD(ABS[1]), 
		 -> TRISE(ABS[1]), 

    vfpfcnvrt@ap	PTR PTR void  size(1) Largest target is 1
		 -> sprintf@ap(COMRAM[1]), 

    vfpfcnvrt@cp	PTR unsigned char  size(1) Largest target is 3
		 -> STR_1(CODE[3]), STR_2(CODE[3]), STR_3(CODE[3]), 

    vfpfcnvrt@fmt	PTR PTR unsigned char  size(1) Largest target is 1
		 -> vfprintf@cfmt(COMRAM[1]), 

    vfpfcnvrt@fp	PTR struct _IO_FILE size(1) Largest target is 12
		 -> sprintf@f(COMRAM[12]), 

    vfprintf@ap	PTR PTR void  size(1) Largest target is 1
		 -> sprintf@ap(COMRAM[1]), 

    vfprintf@cfmt	PTR unsigned char  size(1) Largest target is 3
		 -> STR_1(CODE[3]), STR_2(CODE[3]), STR_3(CODE[3]), 

    vfprintf@fmt	PTR const unsigned char  size(1) Largest target is 3
		 -> STR_1(CODE[3]), STR_2(CODE[3]), STR_3(CODE[3]), 

    vfprintf@fp	PTR struct _IO_FILE size(1) Largest target is 12
		 -> sprintf@f(COMRAM[12]), 


Critical Paths under _main in COMRAM

    _main->_convert_uint8_to_string
    _motor_move_right->_gpio_pin_write_logic
    _motor_move_left->_gpio_pin_write_logic
    _led_on->_gpio_pin_write_logic
    _lcd_4bit_send_data_string_posit->_lcd_set_cursor_4bit
    _lcd_4bit_send_data_string->_lcd_4bit_send_data_char
    _key_pad_get->_lcd_4bit_send_data_char_posit
    _lcd_4bit_send_data_char_posit->_lcd_set_cursor_4bit
    _lcd_set_cursor_4bit->_lcd_4bit_send_command
    _lcd_4bit_send_data_char->_lcd_send_4bit_command_data
    _keypad_get_value->_gpio_pin_write_logic
    _convert_uint8_to_string->_sprintf
    _sprintf->_vfprintf
    _vfprintf->_vfpfcnvrt
    _vfpfcnvrt->_abs
    _abs->___awmod
    _app_initialize->_lcd_4bit_initialize
    _motor_initialize->_gpio_pin_intialize
    _led_intalize->_gpio_pin_intialize
    _lcd_4bit_initialize->_lcd_4bit_send_command
    _lcd_4bit_send_command->_lcd_send_4bit_command_data
    _lcd_send_4bit_enable->_gpio_pin_write_logic
    _lcd_send_4bit_command_data->_gpio_pin_write_logic
    _keypad_initialize->_gpio_pin_intialize
    _gpio_pin_intialize->_gpio_pin_write_logic

Critical Paths under _InterruptManager in COMRAM

    _InterruptManager->_RB4_ISR
    _InterruptManager->_RB5_ISR
    _InterruptManager->_RB6_ISR
    _InterruptManager->_RB7_ISR

Critical Paths under _main in BANK0

    None.

Critical Paths under _InterruptManager in BANK0

    None.

Critical Paths under _main in BANK1

    None.

Critical Paths under _InterruptManager in BANK1

    None.

Critical Paths under _main in BANK2

    None.

Critical Paths under _InterruptManager in BANK2

    None.

Critical Paths under _main in BANK3

    None.

Critical Paths under _InterruptManager in BANK3

    None.

Critical Paths under _main in BANK4

    None.

Critical Paths under _InterruptManager in BANK4

    None.

Critical Paths under _main in BANK5

    None.

Critical Paths under _InterruptManager in BANK5

    None.

Critical Paths under _main in BANK6

    None.

Critical Paths under _InterruptManager in BANK6

    None.

Critical Paths under _main in BANK7

    None.

Critical Paths under _InterruptManager in BANK7

    None.

Critical Paths under _main in BANK8

    None.

Critical Paths under _InterruptManager in BANK8

    None.

Critical Paths under _main in BANK9

    None.

Critical Paths under _InterruptManager in BANK9

    None.

Critical Paths under _main in BANK10

    None.

Critical Paths under _InterruptManager in BANK10

    None.

Critical Paths under _main in BANK11

    None.

Critical Paths under _InterruptManager in BANK11

    None.

Critical Paths under _main in BANK12

    None.

Critical Paths under _InterruptManager in BANK12

    None.

Critical Paths under _main in BANK13

    None.

Critical Paths under _InterruptManager in BANK13

    None.

Critical Paths under _main in BANK14

    None.

Critical Paths under _InterruptManager in BANK14

    None.

Critical Paths under _main in BANK15

    None.

Critical Paths under _InterruptManager in BANK15

    None.

Call Graph Tables:

 ---------------------------------------------------------------------------------
 (Depth) Function   	        Calls       Base Space   Used Autos Params    Refs
 ---------------------------------------------------------------------------------
 (0) _main                                                 6     6      0  248305
                                             45 COMRAM     2     2      0
                                              0 BANK0      4     4      0
                   _EEPROM_Read_Data
                  _EEPROM_Write_Data
                     _app_initialize
            _convert_uint8_to_string
                        _key_pad_get
              _lcd_4bit_send_command
            _lcd_4bit_send_data_char
          _lcd_4bit_send_data_string
    _lcd_4bit_send_data_string_posit
                             _led_on
                    _motor_move_left
                   _motor_move_right
 ---------------------------------------------------------------------------------
 (1) _motor_move_right                                     2     1      1    6126
                                              9 COMRAM     1     0      1
               _gpio_pin_write_logic
 ---------------------------------------------------------------------------------
 (1) _motor_move_left                                      2     1      1    6126
                                              9 COMRAM     1     0      1
               _gpio_pin_write_logic
 ---------------------------------------------------------------------------------
 (1) _led_on                                               4     3      1    6239
                                              9 COMRAM     4     3      1
               _gpio_pin_write_logic
 ---------------------------------------------------------------------------------
 (1) _lcd_4bit_send_data_string_posit                      6     1      5   45796
                                             21 COMRAM     6     1      5
            _lcd_4bit_send_data_char
                _lcd_set_cursor_4bit
 ---------------------------------------------------------------------------------
 (1) _lcd_4bit_send_data_string                            3     1      2   20608
                                             15 COMRAM     3     1      2
            _lcd_4bit_send_data_char
 ---------------------------------------------------------------------------------
 (1) _key_pad_get                                          4     4      0   52567
                                             26 COMRAM     4     4      0
                   _keypad_get_value
      _lcd_4bit_send_data_char_posit
 ---------------------------------------------------------------------------------
 (2) _lcd_4bit_send_data_char_posit                        5     1      4   45042
                                             21 COMRAM     5     1      4
            _lcd_4bit_send_data_char
                _lcd_set_cursor_4bit
 ---------------------------------------------------------------------------------
 (2) _lcd_set_cursor_4bit                                  6     3      3   23472
                                             15 COMRAM     6     3      3
              _lcd_4bit_send_command
 ---------------------------------------------------------------------------------
 (2) _lcd_4bit_send_data_char                              3     1      2   20261
                                             12 COMRAM     3     1      2
               _gpio_pin_write_logic
         _lcd_send_4bit_command_data
               _lcd_send_4bit_enable
 ---------------------------------------------------------------------------------
 (2) _keypad_get_value                                     8     6      2    7271
                                              9 COMRAM     8     6      2
                _gpio_pin_read_logic
               _gpio_pin_write_logic
 ---------------------------------------------------------------------------------
 (3) _gpio_pin_read_logic                                  7     5      2     583
                                              1 COMRAM     7     5      2
 ---------------------------------------------------------------------------------
 (1) _convert_uint8_to_string                              3     2      1    5891
                                             43 COMRAM     2     1      1
                             _memset
                            _sprintf
 ---------------------------------------------------------------------------------
 (2) _sprintf                                             19    15      4    4717
                                             26 COMRAM    17    13      4
                           _vfprintf
 ---------------------------------------------------------------------------------
 (3) _vfprintf                                             4     1      3    3871
                                             22 COMRAM     4     1      3
                          _vfpfcnvrt
 ---------------------------------------------------------------------------------
 (4) _vfpfcnvrt                                           11     8      3    3410
                                             11 COMRAM    11     8      3
                            ___awdiv
                            ___awmod
                                _abs
                              _fputc
 ---------------------------------------------------------------------------------
 (5) _fputc                                                8     5      3     957
                                              1 COMRAM     8     5      3
                              _putch
 ---------------------------------------------------------------------------------
 (6) _putch                                                1     1      0       0
 ---------------------------------------------------------------------------------
 (5) _abs                                                  4     2      2     183
                                              7 COMRAM     4     2      2
                            ___awmod (ARG)
 ---------------------------------------------------------------------------------
 (5) ___awmod                                              6     2      4     613
                                              1 COMRAM     6     2      4
 ---------------------------------------------------------------------------------
 (5) ___awdiv                                              8     4      4     625
                                              1 COMRAM     8     4      4
 ---------------------------------------------------------------------------------
 (2) _memset                                               6     1      5     947
                                              1 COMRAM     6     1      5
 ---------------------------------------------------------------------------------
 (1) _app_initialize                                       1     1      0   60867
                  _keypad_initialize
                _lcd_4bit_initialize
                       _led_intalize
                   _motor_initialize
 ---------------------------------------------------------------------------------
 (2) _motor_initialize                                     2     1      1    9215
                                             12 COMRAM     2     1      1
                 _gpio_pin_intialize
 ---------------------------------------------------------------------------------
 (2) _led_intalize                                         4     3      1    9328
                                             12 COMRAM     4     3      1
                 _gpio_pin_intialize
 ---------------------------------------------------------------------------------
 (2) _lcd_4bit_initialize                                  4     3      1   32171
                                             15 COMRAM     4     3      1
                 _gpio_pin_intialize
              _lcd_4bit_send_command
 ---------------------------------------------------------------------------------
 (3) _lcd_4bit_send_command                                3     1      2   22601
                                             12 COMRAM     3     1      2
               _gpio_pin_write_logic
         _lcd_send_4bit_command_data
               _lcd_send_4bit_enable
 ---------------------------------------------------------------------------------
 (4) _lcd_send_4bit_enable                                 2     1      1    6336
                                              9 COMRAM     2     1      1
               _gpio_pin_write_logic
 ---------------------------------------------------------------------------------
 (4) _lcd_send_4bit_command_data                           4     2      2    6888
                                              9 COMRAM     3     1      2
               _gpio_pin_write_logic
 ---------------------------------------------------------------------------------
 (2) _keypad_initialize                                    4     3      1   10132
                                             12 COMRAM     4     3      1
       _gpio_pin_direction_intialize
                 _gpio_pin_intialize
 ---------------------------------------------------------------------------------
 (3) _gpio_pin_intialize                                   3     2      1    8902
                                              9 COMRAM     3     2      1
       _gpio_pin_direction_intialize
               _gpio_pin_write_logic
 ---------------------------------------------------------------------------------
 (2) _gpio_pin_write_logic                                 8     6      2    5837
                                              1 COMRAM     8     6      2
 ---------------------------------------------------------------------------------
 (4) _gpio_pin_direction_intialize                         7     6      1     797
                                              1 COMRAM     7     6      1
 ---------------------------------------------------------------------------------
 (1) _EEPROM_Write_Data                                    5     2      3     677
                                              1 COMRAM     4     1      3
                      _Wait_to_Cycle
 ---------------------------------------------------------------------------------
 (2) _Wait_to_Cycle                                        0     0      0       0
 ---------------------------------------------------------------------------------
 (1) _EEPROM_Read_Data                                     4     1      3     317
                                              1 COMRAM     3     0      3
 ---------------------------------------------------------------------------------
 Estimated maximum stack depth 6
 ---------------------------------------------------------------------------------
 (Depth) Function   	        Calls       Base Space   Used Autos Params    Refs
 ---------------------------------------------------------------------------------
 (7) _InterruptManager                                     0     0      0     120
                            _ADC_ISR
                           _CCP1_ISR
                           _CCP2_ISR
                  _EUSART_RX_ASY_ISR
                  _EUSART_TX_ASY_ISR
              _I2C_BUS_COLLISION_ISR
                  _I2C_MODULE_TR_ISR
                           _INT0_ISR
                           _INT1_ISR
                           _INT2_ISR
                       _MSSP_Spi_ISR
                            _RB4_ISR
                            _RB5_ISR
                            _RB6_ISR
                            _RB7_ISR
                           _TMR0_ISR
                           _TMR1_ISR
                           _TMR2_ISR
                           _TMR3_ISR
 ---------------------------------------------------------------------------------
 (8) _TMR3_ISR                                             0     0      0       0
 ---------------------------------------------------------------------------------
 (8) _TMR2_ISR                                             0     0      0       0
 ---------------------------------------------------------------------------------
 (8) _TMR1_ISR                                             0     0      0       0
 ---------------------------------------------------------------------------------
 (8) _TMR0_ISR                                             0     0      0       0
 ---------------------------------------------------------------------------------
 (8) _RB7_ISR                                              1     1      0      30
                                              0 COMRAM     1     1      0
 ---------------------------------------------------------------------------------
 (8) _RB6_ISR                                              1     1      0      30
                                              0 COMRAM     1     1      0
 ---------------------------------------------------------------------------------
 (8) _RB5_ISR                                              1     1      0      30
                                              0 COMRAM     1     1      0
 ---------------------------------------------------------------------------------
 (8) _RB4_ISR                                              1     1      0      30
                                              0 COMRAM     1     1      0
 ---------------------------------------------------------------------------------
 (8) _MSSP_Spi_ISR                                         0     0      0       0
 ---------------------------------------------------------------------------------
 (8) _INT2_ISR                                             0     0      0       0
 ---------------------------------------------------------------------------------
 (8) _INT1_ISR                                             0     0      0       0
 ---------------------------------------------------------------------------------
 (8) _INT0_ISR                                             0     0      0       0
 ---------------------------------------------------------------------------------
 (8) _I2C_MODULE_TR_ISR                                    0     0      0       0
 ---------------------------------------------------------------------------------
 (8) _I2C_BUS_COLLISION_ISR                                0     0      0       0
 ---------------------------------------------------------------------------------
 (8) _EUSART_TX_ASY_ISR                                    0     0      0       0
 ---------------------------------------------------------------------------------
 (8) _EUSART_RX_ASY_ISR                                    0     0      0       0
 ---------------------------------------------------------------------------------
 (8) _CCP2_ISR                                             0     0      0       0
 ---------------------------------------------------------------------------------
 (8) _CCP1_ISR                                             0     0      0       0
 ---------------------------------------------------------------------------------
 (8) _ADC_ISR                                              0     0      0       0
 ---------------------------------------------------------------------------------
 Estimated maximum stack depth 8
 ---------------------------------------------------------------------------------

 Call Graph Graphs:

 _main (ROOT)
   _EEPROM_Read_Data
   _EEPROM_Write_Data
     _Wait_to_Cycle
   _app_initialize
     _keypad_initialize
       _gpio_pin_direction_intialize
       _gpio_pin_intialize
         _gpio_pin_direction_intialize
         _gpio_pin_write_logic
     _lcd_4bit_initialize
       _gpio_pin_intialize
       _lcd_4bit_send_command
         _gpio_pin_write_logic
         _lcd_send_4bit_command_data
           _gpio_pin_write_logic
         _lcd_send_4bit_enable
           _gpio_pin_write_logic
     _led_intalize
       _gpio_pin_intialize
     _motor_initialize
       _gpio_pin_intialize
   _convert_uint8_to_string
     _memset
     _sprintf
       _vfprintf
         _vfpfcnvrt
           ___awdiv
           ___awmod
           _abs
             ___awmod (ARG)
           _fputc
             _putch
   _key_pad_get
     _keypad_get_value
       _gpio_pin_read_logic
       _gpio_pin_write_logic
     _lcd_4bit_send_data_char_posit
       _lcd_4bit_send_data_char
         _gpio_pin_write_logic
         _lcd_send_4bit_command_data
         _lcd_send_4bit_enable
       _lcd_set_cursor_4bit
         _lcd_4bit_send_command
   _lcd_4bit_send_command
   _lcd_4bit_send_data_char
   _lcd_4bit_send_data_string
     _lcd_4bit_send_data_char
   _lcd_4bit_send_data_string_posit
     _lcd_4bit_send_data_char
     _lcd_set_cursor_4bit
   _led_on
     _gpio_pin_write_logic
   _motor_move_left
     _gpio_pin_write_logic
   _motor_move_right
     _gpio_pin_write_logic

 _InterruptManager (ROOT)
   _ADC_ISR
   _CCP1_ISR
   _CCP2_ISR
   _EUSART_RX_ASY_ISR
   _EUSART_TX_ASY_ISR
   _I2C_BUS_COLLISION_ISR
   _I2C_MODULE_TR_ISR
   _INT0_ISR
   _INT1_ISR
   _INT2_ISR
   _MSSP_Spi_ISR
   _RB4_ISR
   _RB5_ISR
   _RB6_ISR
   _RB7_ISR
   _TMR0_ISR
   _TMR1_ISR
   _TMR2_ISR
   _TMR3_ISR

 Address spaces:
Name               Size   Autos  Total    Cost      Usage
BIGRAM             F7F      0       0      48        0.0%
EEDATA             400      0       0       0        0.0%
BITBANK14          100      0       0      32        0.0%
BANK14             100      0       0      33        0.0%
BITBANK13          100      0       0      30        0.0%
BANK13             100      0       0      31        0.0%
BITBANK12          100      0       0      28        0.0%
BANK12             100      0       0      29        0.0%
BITBANK11          100      0       0      26        0.0%
BANK11             100      0       0      27        0.0%
BITBANK10          100      0       0      24        0.0%
BANK10             100      0       0      25        0.0%
BITBANK9           100      0       0      22        0.0%
BANK9              100      0       0      23        0.0%
BITBANK8           100      0       0      20        0.0%
BANK8              100      0       0      21        0.0%
BITBANK7           100      0       0      18        0.0%
BANK7              100      0       0      19        0.0%
BITBANK6           100      0       0      16        0.0%
BANK6              100      0       0      17        0.0%
BITBANK5           100      0       0      14        0.0%
BANK5              100      0       0      15        0.0%
BITBANK4           100      0       0      12        0.0%
BANK4              100      0       0      13        0.0%
BITBANK3           100      0       0      10        0.0%
BANK3              100      0       0      11        0.0%
BITBANK2           100      0       0       8        0.0%
BANK2              100      0       0       9        0.0%
BITBANK1           100      0       0       6        0.0%
BANK1              100      0       0       7        0.0%
BITBANK15           80      0       0      34        0.0%
BANK15              80      0       0      35        0.0%
BITBANK0            80      0       0       4        0.0%
BANK0               80      4      77       5       93.0%
BITCOMRAM           7E      0       0       0        0.0%
COMRAM              7E     2F      7A       1       96.8%
BITBIGSFRhlhlhh     18      0       0      37        0.0%
BITBIGSFRhh          D      0       0      36        0.0%
BITBIGSFRlllhh       6      0       0      44        0.0%
BITBIGSFRhlhlhh      5      0       0      38        0.0%
BITBIGSFRllhllh      4      0       0      41        0.0%
BITBIGSFRllllh       4      0       0      45        0.0%
BITBIGSFRllhllh      4      0       0      42        0.0%
BITBIGSFRlllll       4      0       0      46        0.0%
BITBIGSFRhlhlhh      1      0       0      39        0.0%
BITBIGSFRllhllh      1      0       0      40        0.0%
BITBIGSFRllhlll      1      0       0      43        0.0%
BIGSFR               0      0       0     200        0.0%
BITSFR               0      0       0     200        0.0%
SFR                  0      0       0     200        0.0%
STACK                0      0       0       2        0.0%
NULL                 0      0       0       0        0.0%
ABS                  0      0      F1      47        0.0%
DATA                 0      0      F1       3        0.0%
CODE                 0      0       0       0        0.0%


Microchip Technology PIC18 Macro Assembler V2.45 build 20230818022343 
Symbol Table                                                                                   Sat May 11 21:07:07 2024

                      ??_InterruptManager 003D               lcd_4bit_send_data_char@data 0049  
                   _I2C_BUS_COLLISION_ISR 2928                               _SSPSTATbits 0FC7  
                                      l71 1D0A                                        l81 24B2  
                                      l76 250E                                        l86 2666  
                                      l94 2568                              ___awdiv@sign 0042  
                                     l102 21D6                                       l200 2140  
                                     l221 2802                                       l231 285E  
                                     l160 25AA                                       l226 2830  
                                     l252 2394                                       l180 232C  
                                     l190 262A                                       l271 1C24  
                                     l280 226A                                       l257 2396  
                                     l291 224C                                       l620 26A0  
                                     l284 22BE                                       l614 28D8  
                                     l623 26B6                                       l287 21F4  
                                     l625 26D6                                       l617 28E6  
                                     l817 1A26                                       l843 20A4  
                                     l836 1B36                                       l857 2456  
               _RB5_InterruptHandeler_Low 0011   _I2C_Receive_Overflow_IndicatoR_HANDLERF 00B6  
                    keypad_initialize@ret 0049                                       _abs 270C  
               __end_of_EEPROM_Write_Data 26A2                                       _red 003B  
                         __end_of_ADC_ISR 293C                                       _ret 0031  
                                     _str 00BD                              ___awmod@sign 0042  
                                     wreg 0FE8                                _TXSTA1bits 0FAC  
                       ?_motor_initialize 0048                               led_on@F3059 0038  
                           ?_led_intalize 0048                          ??_app_initialize 004F  
                      ??_motor_initialize 0049                           __end_of_RB4_ISR 28C8  
                         __end_of_RB5_ISR 28AE                           __end_of_RB6_ISR 2894  
                         __end_of_RB7_ISR 287A                                      ?_abs 0043  
                                    l2040 1EA6                                      l2053 1F56  
                       ??_motor_move_left 0046                                      l2531 1900  
                                    l2541 2726                                      l1806 1DE2  
                                    l2544 273E                                      l2537 25EA  
                                    l2556 2000                                      l2493 270A  
                                    l2486 27D2                                      l2567 293C  
                                    l1794 2770                                      l1797 1D0C  
                                    l1789 173C                                      l8001 1BCC  
                                    l8011 1C12                                      l8003 1BDC  
                                    l8021 226E                                      l8005 1BFE  
                                    l8013 1C22                                      l8023 22A2  
                                    l8007 1C00                                      l8201 26B2  
                                    l8033 28D8                                      l8025 22A4  
                                    l8017 224E                                      l8121 256C  
                                    l8009 1C10                                      l8041 2546  
                                    l8211 26C6                                      l8203 26BA  
                                    l8027 22B4                                      l8019 2262  
                                    l8123 257C                                      l8043 2548  
                                    l8035 2510                                      l8051 2152  
                                    l8131 2804                                      l8213 26C8  
                                    l8205 26C0                                      l8029 22BC  
                                    l8221 2740                                      l8125 2580  
                                    l8045 2566                                      l8037 2524  
                                    l8061 21D4                                      l8053 215A  
                                    l8141 2832                                      l8133 2814  
                                    l8215 26CA                                      l8207 26C2  
                                    l7511 1AB4                                      l7503 1A28  
                                    l8231 2760                                      l8223 2740  
                                    l8127 2598                                      l8119 256C  
                                    l8039 252C                                      l8055 2170  
                                    l8151 21D8                                      l8143 2842  
                                    l8135 2818                                      l8217 26CC  
                                    l8209 26C4                                      l7505 1A3C  
                                    l8233 2768                                      l8225 2748  
                                    l7601 1EBA                                      l8241 1D14  
                                    l8057 219E                                      l8049 2142  
                                    l8161 223E                                      l8153 21EC  
                                    l8145 2846                                      l8137 2830  
                                    l8171 2670                                      l7515 1B0A  
                                    l7507 1A5C                                      l7531 232A  
                                    l8227 2750                                      l7611 1EEE  
                                    l7603 1EC2                                      l8251 1D78  
                                    l8243 1D2C                                      l8235 1D0C  
                                    l8059 21A2                                      l8155 21F8  
                                    l8163 224A                                      l8147 285E  
                                    l8181 2686                                      l8173 2676  
                                    l7509 1A64                                      l7517 1B34  
                                    l7533 232A                                      l7525 22C0  
                                    l7541 2604                                      l8229 2758  
                                    l7621 1F2A                                      l7613 1EF6  
                                    l7605 1EC6                                      l7701 17E6  
                                    l8253 1D86                                      l8245 1D40  
                                    l8157 222C                                      l8191 2690  
                                    l8183 2688                                      l8175 267A  
                                    l8167 2668                                      l7527 22D0  
                                    l7543 2610                                      l7623 1F30  
                                    l7615 1EFE                                      l7607 1ED4  
                                    l7711 186C                                      l7703 17FE  
                                    l8255 1D9E                                      l8247 1D44  
                                    l8159 222E                                      l8193 2694  
                                    l8185 268A                                      l8177 267E  
                                    l8169 2668                                      l7529 22D8  
                                    l7545 2618                                      l7537 25EC  
                                    l7561 1E02                                      l7553 1DE4  
                                    l7617 1F0C                                      l7625 1F36  
                                    l7609 1EDC                                      l7641 1F9E  
                                    l7633 1F58                                      l7713 187C  
                                    l7721 18BA                                      l7705 182E  
                                    l8257 1DB4                                      l8249 1D5A  
                                    l8195 2696                                      l8187 268C  
                                    l8179 2682                                      l7651 1902  
                                    l7547 2624                                      l7539 25FC  
                                    l7803 1C26                                      l7571 1E36  
                                    l7563 1E10                                      l7555 1DE8  
                                    l7627 1F46                                      l7619 1F22  
                                    l7643 1FD0                                      l7635 1F68  
                                    l7715 188C                                      l7707 184A  
                                    l7723 18D0                                      l8259 1DD0  
                                    l8189 268E                                      l7653 1916  
                                    l7741 2454                                      l7733 23FA  
                                    l7549 2628                                      l7821 1C78  
                                    l7805 1C3A                                      l7901 27A4  
                                    l7581 1E70                                      l7573 1E3E  
                                    l7565 1E18                                      l7557 1DF6  
                                    l7629 1F4E                                      l7637 1F78  
                                    l7717 189E                                      l7709 185C  
                                    l8199 26A2                                      l7663 19E4  
                                    l7655 1936                                      l7735 240A  
                                    l7831 1CBE                                      l7823 1C86  
                                    l7815 1C5A                                      l7807 1C42  
                                    l7903 27AC                                      l7591 1E96  
                                    l7583 1E78                                      l7575 1E46  
                                    l7567 1E1C                                      l7559 1DFE  
                                    l7647 270C                                      l7639 1F82  
                                    l7719 18B8                                      l7727 18DC  
                                    l7911 26E0                                      l7751 2046  
                                    l7657 193E                                      l7665 1A24  
                                    l7737 242A                                      l7673 24B4  
                                    l7841 1CFA                                      l7833 1CCA  
                                    l7825 1C92                                      l7817 1C66  
                                    l7809 1C56                                      l7921 27D4  
                                    l7905 27B6                                      l7593 1E9E  
                                    l7585 1E7A                                      l7577 1E54  
                                    l7569 1E24                                      l7649 271A  
                                    l7913 26E8                                      l7753 204E  
                                    l7745 2002                                      l7761 2468  
                                    l8721 1462                                      l7659 1994  
                                    l7739 2432                                      l7675 24C4  
                                    l7835 1CD6                                      l7827 1CAC  
                                    l7819 1C68                                      l7843 1D08  
                                    l7923 27E4                                      l7907 27B8  
                                    l7587 1E80                                      l7579 1E5A  
                                    l7691 177E                                      l7683 1740  
                                    l7915 26F0                                      l7755 20A2  
                                    l7747 2016                                      l7763 2470  
                                    l7771 20A6                                      l7851 2644  
                                    l8811 1702                                      l8803 16BC  
                                    l8731 14B8                                      l8723 1472  
                                    l7933 232E                                      l7677 24CC  
                                    l7837 1CE2                                      l7829 1CB2  
                                    l7925 27EC                                      l7589 1E86  
                                    l7597 1EA8                                      l7693 1788  
                                    l7685 1764                                      l7917 2700  
                                    l7909 26D8                                      l7749 2036  
                                    l7765 24B0                                      l7781 20FC  
                                    l7773 20AC                                      l7853 2664  
                                    l8813 170A                                      l8805 16C6  
                                    l8741 14DC                                      l8733 14CE  
                                    l8725 1476                                      l7943 2352  
                                    l7935 2346                                      l7679 250C  
                                    l7839 1CEE                                      l7927 27FC  
                                    l7599 1EAC                                      l7695 17A6  
                                    l7687 176C                                      l7759 2458  
                                    l7775 20C0                                      l7783 2104  
                                    l7847 262C                                      l8815 1718  
                                    l8807 16DE                                      l8751 1532  
                                    l8743 14FE                                      l8735 14D2  
                                    l8727 1494                                      l7961 2390  
                                    l7945 235C                                      l7937 234E  
                                    l7929 2800                                      l7697 17C4  
                                    l7689 177A                                      l7793 25AC  
                                    l7777 20D4                                      l7785 213E  
                                    l7769 20A6                                      l7849 263C  
                                    l8817 1726                                      l8809 16EC  
                                    l8761 1576                                      l8753 1536  
                                    l8745 1500                                      l8729 14AA  
                                    l7955 2372                                      l7947 235E  
                                    l7699 17DC                                      l7795 25B4  
                                    l7971 1B70                                      l7779 20E8  
                                    l8771 15D6                                      l8763 157E  
                                    l8755 1554                                      l8747 1504  
                                    l7957 237E                                      l7949 236E  
                                    l7797 25C4                                      l7965 1B38  
                                    l8781 162C                                      l8773 15DE  
                                    l8765 1594                                      l8757 1564  
                                    l8749 1520                                      l7959 2380  
                                    l7799 25E2                                      l7991 1BA6  
                                    l7983 1B78                                      l7967 1B58  
                                    l8791 1682                                      l8783 1636  
                                    l8775 15E6                                      l8767 15A2  
                                    l8759 156E                                      l7993 1BB6  
                                    l7985 1B86                                      l7977 1B74  
                                    l7969 1B68                                      l8881 2118  
                                    l8793 1694                                      l8785 164C  
                                    l8777 15FC                                      l8769 15B8  
                                    l8883 1B1E                                      l7987 1B88  
                                    l8795 16A4                                      l8787 165A  
                                    l8779 160E                                      l8885 1A0E  
                                    l7989 1B98                                      l8797 16B2  
                                    l8789 1670                                      l7999 1BBA  
                                    STR_1 1058                                      STR_4 1032  
              _RB5_InterruptHandeler_High 0013                                      STR_5 1011  
                                    STR_6 1022                                      STR_7 104E  
                                    STR_8 1041                                      _LATA 0F89  
                                    _LATB 0F8A                                      _LATC 0F8B  
                                    _LATD 0F8C                                      _LATE 0F8D  
                                    u7000 240A                                      u7001 2406  
                                    u7010 242A                                      u7011 2426  
                                    u7020 2016                                      u7100 263C  
                                    u7021 2012                                      u7101 2638  
                                    u7030 2036                                      u7031 2032  
                                    u7040 2046                                      u7200 1B58  
                                    u7041 2042                                      u7201 1B54  
                                    u7210 1B68                                      u8010 14FE  
                                    u7211 1B64                                      u8011 14FA  
                                    u7220 1B98                                      u7060 2468  
                                    u7300 2566                                      u8020 1520  
                                    u7221 1B94                                      u7061 2464  
                                    u7301 2562                                      u8021 151C  
                                    u7150 27D2                                      u7070 25E2  
                                    u7054 2096                                      u7230 1BDC  
                                    u7310 2152                                      u8030 1532  
                                    u7151 27CE                                      u7071 25DE  
                                    u7055 2092                                      u7231 1BD8  
                                    u7311 214E                                      u8031 152E  
                                    u6600 1A3C                                      u7080 1C3A  
                                    u7160 27E4                                      u7240 1C10  
                                    u7320 2196                                      u8040 1694  
                                    u6601 1A38                                      u7081 1C36  
                                    u7161 27E0                                      u7241 1C0C  
                                    u8041 1690                                      u6610 1A5C  
                                    u7170 2346                                      u7090 1C78  
                                    u7410 257C                                      u7250 1C22  
                                    u7330 21C4                                      u8050 1718  
                                    u6611 1A58                                      u7171 2342  
                                    u7091 1C74                                      u7411 2578  
                                    u7251 1C1E                                      u8051 1714  
                                    u8107 15F0                                      u7180 236E  
                                    u7260 2262                                      u6700 1E70  
                                    u7500 1DD0                                      u7340 21D4  
                                    u7420 2814                                      u7181 236A  
                                    u7261 225E                                      u6701 1E6C  
                                    u7501 1DCC                                      u7341 21D0  
                                    u7421 2810                                      u8117 1640  
                                    u7190 2390                                      u6710 1E96  
                                    u7510 1DE2                                      u7430 2842  
                                    u7191 238C                                      u8207 1CAE  
                                    u6711 1E92                                      u7511 1DDE  
                                    u7327 218C                                      u7431 283E  
                                    u8127 1664                                      u7280 28E6  
                                    u6624 1A82                                      u6640 22D0  
                                    u6720 1EBA                                      u6800 1F9E  
                                    u7440 21EC                                      u7281 28E2  
                                    u6625 1A7E                                      u6641 22CC  
                                    u8217 2612                                      u6721 1EB6  
                                    u6801 1F9A                                      u7337 21BA  
                                    u7441 21E8                                      u8137 16F6  
                                    u6634 1AD2                                      u6650 25FC  
                                    u6730 1ED4                                      u6810 1FD0  
                                    u7290 2524                                      u6635 1ACE  
                                    u6651 25F8                                      u7275 22B2  
                                    u6731 1ED0                                      u6811 1FCC  
                                    u7291 2520                                      u8147 1730  
                                    u8067 149E                                      u6660 1DF6  
                                    u6740 1EEE                                      u6820 271A  
                                    u6900 1764                                      u7277 22B4  
                                    u6661 1DF2                                      u6741 1EEA  
                                    u6821 2716                                      u6901 1760  
                                    u8157 1D4E                                      u8077 14C2  
                                    u7470 26B2                                      u6830 1916  
                                    u6670 1E10                                      u6750 1F0C  
                                    u6910 17A6                                      u7471 26AE  
                                    u6831 1912                                      u6671 1E0C  
                                    u6751 1F08                                      u6911 17A2  
                                    u8167 1D7E                                      u7455 223C  
                                    u8087 1588                                      u6840 1936  
                                    u6680 1E36                                      u6760 1F22  
                                    u6920 17C4                                      u7480 1D2C  
                                    u7465 269E                                      u6841 1932  
                                    u6681 1E32                                      u6761 1F1E  
                                    u6921 17C0                                      u8177 1BAC  
                                    u7481 1D28                                      u7457 223E  
                                    u8097 15AC                                      u7466 26A0  
                                    u6690 1E54                                      u6770 1F46  
                                    u6930 17FA                                      u7490 1D9E  
                                    u8187 1C7E                                      u6691 1E50  
                                    u6771 1F42                                      u6931 17F4  
                                    u7491 1D9A                                      u6780 1F68  
                                    u6940 17FC                                      u8197 1C98  
                                    u6781 1F64                                      u6870 19FA  
                                    u6854 195C                                      u6790 1F78  
                                    u6950 185C                                      u6871 19F4  
                                    u6855 1958                                      u6791 1F74  
                                    u6951 1858                                      u6880 19FC  
                                    u6864 19B2                                      u6960 186C  
                                    u6865 19AE                                      u6961 1868  
                                    u6890 24C4                                      u6970 187C  
                                    u6891 24C0                                      u6971 1878  
                                    u6980 188C                                      u6981 1888  
                                    u6990 18CC                                      u6991 18C8  
                                    _TMR2 0FCC                                      abs@a 0043  
                                    _dbuf 0080                                      _main 1462  
                        __end_of_CCP1_ISR 2938                          __end_of_CCP2_ISR 2934  
                                    _prec 00A8                                      fsr0h 0FEA  
                                    fsr1h 0FE2                                      indf0 0FEF  
                                    fsr2h 0FDA                                      fsr0l 0FE9  
                                    indf1 0FE7                                      indf2 0FDF  
                                    fsr1l 0FE1                                      fsr2l 0FD9  
                                    btemp 007B                                      prodl 0FF3  
                                    start 000E                              ___param_bank 0000  
                   _lcd_4bit_send_command 24B4             lcd_4bit_send_data_string@data 004C  
                                   ??_abs 0045                      _gpio_pin_write_logic 1A28  
                  keypad_get_value@keypad 0045                          __end_of_INT0_ISR 2924  
                       ?_motor_move_right 0045                          __end_of_INT1_ISR 2920  
                        __end_of_INT2_ISR 291C                              ?_key_pad_get 003C  
                                   ?_main 003C                           __end_of___awdiv 1EA8  
                                   _EEADR 0FA9                           __end_of___awmod 1F58  
                      ??_motor_move_right 0046                           ___awdiv@divisor 003F  
                            led_off@F3064 0037                                     i2l532 2936  
                                   i2l453 293A                                     i2l537 2932  
                                   i2l760 292E                                     i2l769 293E  
                         ___awdiv@counter 0041                                     _RCREG 0FAE  
                            vfpfcnvrt@fmt 0048                                     _TMR0H 0FD7  
                                   _TMR1H 0FCF                                     _TMR0L 0FD6  
                                   _TMR1L 0FCE                                     _TMR3H 0FB3  
                                   _TMR3L 0FB2                                     _SPBRG 0FAF  
                                   _PORTA 0F80                                     _PORTB 0F81  
                                   _PORTC 0F82                                     _PORTD 0F83  
                                   _PORTE 0F84  EEPROM_Write_Data@Global_Interrupt_Statue 0040  
                         led_intalize@led 0048                                     _TRISA 0F92  
                                   _TRISB 0F93                           led_intalize@obj 004B  
                                   _TRISC 0F94                                     _TRISD 0F95  
                                   _TRISE 0F96        __end_of_lcd_send_4bit_command_data 232E  
              _lcd_send_4bit_command_data 22C0                           led_intalize@ret 004A  
                                   _TXREG 0FAD                            ??_led_intalize 0049  
                __end_of_keypad_get_value 1C26                          __end_of_TMR0_ISR 290C  
                        __end_of_TMR1_ISR 2900                          __end_of_TMR2_ISR 2914  
                        __end_of_TMR3_ISR 28F4                                     _lcd_2 00ED  
   __end_of_lcd_4bit_send_data_char_posit 2668             _lcd_4bit_send_data_char_posit 262C  
                                   _flags 002F     lcd_4bit_send_data_string_posit@colunm 0053  
                                   _green 007A                                     _fputc 1F58  
                                   _value 0030                                     _width 00A6  
                                   _putch 293C                                     main@i 00F3  
                                   main@k 00F5                                     tablat 0FF5  
                                   ttemp5 007C                                     ttemp6 007F  
                                   ttemp7 0083                                     status 0FD8  
                                   wtemp8 007C                           __end_of_sprintf 270C  
                  ?_I2C_BUS_COLLISION_ISR 003C                           __initialization 2398  
                     keypad_get_value@ret 0048                              __end_of_main 1740  
      lcd_4bit_send_data_string_posit@lcd 0051        lcd_4bit_send_data_string_posit@ret 0056  
      lcd_4bit_send_data_string_posit@row 0052                     ?_gpio_pin_write_logic 003D  
       lcd_4bit_send_data_char_posit@data 0054                                 ??_ADC_ISR 003C  
                gpio_pin_read_logic@logic 003E                             _lat_registers 00C2  
                __end_of_EEPROM_Read_Data 26D8                   _CCP1_INTERRUPT_HANDLERF 002B  
                                  ??_main 0069                             __activetblptr 0003  
                               ??_RB4_ISR 003C                                 ??_RB5_ISR 003C  
                               ??_RB6_ISR 003C                                 ??_RB7_ISR 003C  
                 capture_read_value@F3164 0027                                    ?_fputc 003D  
                                  _ADRESH 0FC4                                    _EEADRH 0FAA  
                                  _ADRESL 0FC3                                    _EEDATA 0FA8  
                                  _CCPR1H 0FBF                                    _CCPR2H 0FBC  
                                  _CCPR1L 0FBE                                    _CCPR2L 0FBB  
         keypad_initialize@column_counter 004B                                    _EECON2 0FA7  
                        ___awdiv@dividend 003D                                    ?_putch 003C  
                                  i2l1104 2892                                    i2l1201 12DE  
                                  i2l1115 2878                                    i2l1211 137E  
                                  i2l1203 12FE                                    i2l1061 2922  
                                  i2l1221 141E                                    i2l1213 139E  
                                  i2l1205 131E                                    i2l1071 291A  
                                  i2l1223 143E                                    i2l1215 13BE  
                                  i2l1207 133E                                    i2l1217 13DE  
                                  i2l1209 135E                                    i2l1066 291E  
                                  i2l1082 28C6                                    i2l1226 145E  
                                  i2l1219 13FE                                    i2l1093 28AC  
                                  i2l1181 107E                                    i2l1191 118A  
                                  i2l1183 109E                                    i2l1193 11CE  
                                  i2l1185 10BE                                    i2l1195 1212  
                                  i2l1187 1102                                    i2l1364 292A  
                                  i2l1197 1256                                    i2l1189 1146  
                                  i2l1199 129A                                    i2l1369 2926  
                                  i2l1538 290A                                    i2l1468 2916  
                                  i2l3423 2920                                    i2l3433 2918  
                                  i2l3441 28B2                                    i2l1585 28FE  
                                  i2l1649 2912                                    i2l3283 2938  
                                  i2l3363 292C                                    i2l3427 291C  
                                  i2l3461 28AC                                    i2l3453 2896  
                                  i2l1694 28F2                                    i2l3295 2930  
                                  i2l3447 28C6                                    i2l3439 28B0  
                                  i2l3455 2898                                    i2l3289 2934  
                                  i2l3369 293E                                    i2l3537 2928  
                                  i2l3481 2862                                    i2l7001 132C  
                                  i2l3475 2892                                    i2l3467 287C  
                                  i2l3483 2864                                    i2l7011 137A  
                                  i2l7003 133A                                    i2l3469 287E  
                                  i2l7021 13CC                                    i2l7013 138C  
                                  i2l7005 134C                                    i2l7031 141A  
                                  i2l7023 13DA                                    i2l7015 139A  
                                  i2l7007 135A                                    i2l3489 2878  
                                  i2l6305 2900                                    i2l7033 142C  
                                  i2l7025 13EC                                    i2l7017 13AC  
                                  i2l7009 136C                                    i2l6307 2902  
                                  i2l6315 28F4                                    i2l6331 28E8  
                                  i2l7035 143A                                    i2l7027 13FA  
                                  i2l7019 13BA                                    i2l6341 2924  
                                  i2l6309 2906                                    i2l6317 28F6  
                                  i2l6325 290C                                    i2l6333 28EA  
                                  i2l7037 144C                                    i2l7029 140C  
                                  i2l6319 28FA                                    i2l6335 28EE  
                                  i2l7039 145A                                    i2l6347 2914  
                                  i2l6901 106C                                    i2l6911 10BA  
                                  i2l6903 107A                                    i2l6921 10FC  
                                  i2l6913 10CC                                    i2l6905 108C  
                                  i2l6931 1140                                    i2l6923 1110  
                                  i2l6915 10DA                                    i2l6907 109A  
                                  i2l6941 1184                                    i2l6933 1154  
                                  i2l6925 111E                                    i2l6917 10E8  
                                  i2l6909 10AC                                    i2l6951 11C8  
                                  i2l6943 1198                                    i2l6935 1162  
                                  i2l6927 112C                                    i2l6919 10F8  
                                  i2l6961 120C                                    i2l6953 11DC  
                                  i2l6945 11A6                                    i2l6937 1170  
                                  i2l6929 113C                                    i2l6971 1250  
                                  i2l6963 1220                                    i2l6955 11EA  
                                  i2l6947 11B4                                    i2l6939 1180  
                                  i2l6981 1294                                    i2l6973 1264  
                                  i2l6965 122E                                    i2l6957 11F8  
                                  i2l6949 11C4                                    i2l6991 12D8  
                                  i2l6983 12A8                                    i2l6975 1272  
                                  i2l6967 123C                                    i2l6959 1208  
                                  i2l6993 12EC                                    i2l6985 12B6  
                                  i2l6977 1280                                    i2l6969 124C  
                                  i2l6995 12FA                                    i2l6987 12C4  
                                  i2l6979 1290                                    i2l6899 105E  
                                  i2l6997 130C                                    i2l6989 12D4  
                                  i2l6999 131A                       _lcd_set_cursor_4bit 20A6  
                           vfpfcnvrt@done 004B                                    _SPBRGH 0FB0  
                                  _SSPADD 0FC8                                    _SSPBUF 0FC9  
               keypad_get_value@l_counter 004B                     __end_of_Wait_to_Cycle 28E8  
                  ?_lcd_4bit_send_command 0048                              vfprintf@cfmt 0055  
                 keypad_initialize@keypad 0048               keypad_get_value@row_counter 004A  
                               ??___awdiv 0041                                 ??___awmod 0041  
                                  _led_on 21D8                                    _memset 27A4  
                                  clear_0 23DE                                    clear_1 23EA  
                        ___awdiv@quotient 0043                      ?_lcd_set_cursor_4bit 004B  
                         ___awmod@divisor 003F                    lcd_set_cursor_4bit@lcd 004B  
                                  isa$std 0001                    lcd_set_cursor_4bit@ret 0050  
                  lcd_set_cursor_4bit@row 004C                           ___awmod@counter 0041  
                  EEPROM_Write_Data@S_Add 003D                                    fputc@c 003D  
                               ?_CCP1_ISR 003C                              __pdataCOMRAM 006B  
                               ?_CCP2_ISR 003C                    EEPROM_Write_Data@ddata 003F  
                            __mediumconst 0000                 keypad_get_value@ret_logic 0049  
                                  tblptrh 0FF7                                    tblptrl 0FF6  
                                  tblptru 0FF8                 _TIMER3_INTERRUPT_HANDLERF 00AA  
                                  putch@c 003C                          __end_of_vfprintf 25EC  
                               ??_sprintf 005A              lcd_4bit_send_data_string@lcd 004B  
            lcd_4bit_send_data_string@ret 004D                   _convert_uint8_to_string 256A  
                              __accesstop 0080                   __end_of__initialization 23F0  
          ?_lcd_4bit_send_data_char_posit 0051                                 ?_INT0_ISR 003C  
                               ?_INT1_ISR 003C                                 ?_INT2_ISR 003C  
                           ___rparam_used 0001                convert_uint8_to_string@num 0068  
              convert_uint8_to_string@str 0067                   _lcd_4bit_send_data_char 2458  
                    __end_of_led_intalize 22C0                    ??_gpio_pin_write_logic 003F  
                          __pcstackCOMRAM 003C                              __pidataBANK0 2772  
                               ?_TMR0_ISR 003C                                 ?_TMR1_ISR 003C  
                               ?_TMR2_ISR 003C                                 ?_TMR3_ISR 003C  
     lcd_4bit_send_data_string_posit@data 0054                             __end_of_fputc 2002  
                   ??_lcd_set_cursor_4bit 004E                             __end_of_putch 293E  
                lcd_4bit_send_command@lcd 0048                         RB5_ISR@RB5_source 003C  
                lcd_4bit_send_command@ret 004A                           _motor_move_left 2832  
                              ??_CCP1_ISR 003C                                ??_CCP2_ISR 003C  
              ?_lcd_4bit_send_data_string 004B              keypad_initialize@row_counter 004A  
                  _INT2_InterruptHandeler 0019                                   ??_fputc 0040  
          _preload_value@hal_timer1$F3998 0003                                   ??_putch 003D  
                              __pbssBANK0 0080              __end_of_lcd_send_4bit_enable 262C  
                              ??_INT0_ISR 003C                                ??_INT1_ISR 003C  
                              ??_INT2_ISR 003C                            _enter_password 00B8  
               lcd_set_cursor_4bit@column 004D                                ??_TMR0_ISR 003C  
                              ??_TMR1_ISR 003C                                ??_TMR2_ISR 003C  
                              ??_TMR3_ISR 003C                                   ?_led_on 0045  
                                 _ADC_ISR 2938                           led_toggle@F3069 0036  
                                 ?_memset 003D                         _EUSART_RX_ASY_ISR 293E  
                       led_intalize@F3054 0039                        ?_EUSART_RX_ASY_ISR 003C  
               _RB6_InterruptHandeler_Low 000D                                   _RB4_ISR 28AE  
                                 _RB5_ISR 2894                                   _RB6_ISR 287A  
                                 _RB7_ISR 2860               ?_lcd_send_4bit_command_data 0045  
                       _EUSART_TX_ASY_ISR 292C                             _keypad_values 1001  
                 lcd_send_4bit_enable@lcd 0045                   lcd_send_4bit_enable@ret 0046  
                       ?_keypad_get_value 0045                         RB7_ISR@RB7_source 003C  
                     ??_EUSART_RX_ASY_ISR 003C                        ?_EUSART_TX_ASY_ISR 003C  
               ??_convert_uint8_to_string 0068                _RB4_InterruptHandeler_High 0017  
                      ??_keypad_get_value 0047                            _tris_registers 00D6  
              _RB7_InterruptHandeler_High 000B                 ??_lcd_4bit_send_data_char 004A  
                 ??_I2C_BUS_COLLISION_ISR 003C                       ??_EUSART_TX_ASY_ISR 003C  
                                 __Hparam 0000                                   __Lparam 0000  
                 __end_of_motor_move_left 2860                              key_pad_get@i 0058  
               __end_of_EUSART_RX_ASY_ISR 2940                                   ___awdiv 1DE4  
                     _gpio_pin_read_logic 2002                                   ___awmod 1EA8  
                               ?_vfprintf 0052                              __psmallconst 1000  
              __end_of_gpio_pin_intialize 2458                                   __pcinit 2398  
                           ?_MSSP_Spi_ISR 003C                                   __ramtop 1000  
                                 __ptext0 1462                             relay_on@F3057 0034  
                                 __ptext1 2804                                   __ptext2 2832  
                                 __ptext3 21D8                                   __ptext4 2142  
                                 __ptext5 2510                                   __ptext6 1D0C  
                                 __ptext7 262C                                   __ptext8 20A6  
                                 __ptext9 2458                         ?_EEPROM_Read_Data 003D  
                               _T0CONbits 0FD5                 __end_of_EUSART_TX_ASY_ISR 2930  
                               _T1CONbits 0FCD                                 _T2CONbits 0FCA  
                      ??_EEPROM_Read_Data 0040                                 _T3CONbits 0FB1  
                        ___awmod@dividend 003D                    _TMR2_INTERRUPT_HANDLER 00AC  
                                 _motor_1 0078                                   _motor_2 0076  
                       _I2C_MODULE_TR_ISR 2924                      ?_gpio_pin_read_logic 003D  
                                 _sprintf 26D8                            __pintcode_body 105C  
                         _Stored_password 00E0                      end_of_initialization 23F0  
                      ?_I2C_MODULE_TR_ISR 003C                                   fputc@fp 003F  
                                 memset@c 003E                                   memset@n 0040  
                                 memset@p 0042                                   int_func 105C  
                 ??_lcd_4bit_send_command 004A                       ??_I2C_MODULE_TR_ISR 003C  
                   gpio_pin_intialize@ret 0047   __end_of_lcd_4bit_send_data_string_posit 21D8  
       ??_lcd_4bit_send_data_string_posit 0056          ?_lcd_4bit_send_data_string_posit 0051  
         _lcd_4bit_send_data_string_posit 2142                         __end_of_vfpfcnvrt 1902  
                               _RCSTAbits 0FAB           __end_of_convert_uint8_to_string 25AC  
                                 postdec1 0FE5                                   postdec2 0FDD  
                                 postinc0 0FEE                                   postinc1 0FE6  
                                 postinc2 0FDE                          vfpfcnvrt@convarg 004D  
                              ??_vfprintf 0055            lcd_send_4bit_command_data@data 0046  
                          ??_MSSP_Spi_ISR 003C                       _lcd_4bit_initialize 1C26  
 _EUSART_FRAMING_ERROR_INTERRUPT_HANDLERF 0021              _I2C_Write_Collision_HANDLERF 0007  
                               _PORTBbits 0F81           __end_of_lcd_4bit_send_data_char 24B4  
                  _ADC_INTERRUPT_HANDLERF 002D                      _lcd_send_4bit_enable 25EC  
                        _InterruptManager 0008                 __end_of_I2C_MODULE_TR_ISR 2928  
    __end_of_gpio_pin_direction_intialize 1A28              _gpio_pin_direction_intialize 1902  
                               _TRISCbits 0F94                              _led_intalize 224E  
              lcd_4bit_send_data_char@lcd 0048                     ??_gpio_pin_read_logic 003F  
              lcd_4bit_send_data_char@ret 004A                      ?_lcd_4bit_initialize 004B  
            _EUSART_TX_INTERRUPT_HANDLERF 0025                               _CCP1CONbits 0FBD  
                             _CCP2CONbits 0FBA                                 _TXSTAbits 0FAC  
                        _motor_initialize 27D4                          ?_motor_move_left 0045  
                   keypad_get_value@value 0046             convert_uint16_to_string@F3208 00A0  
                             vfpfcnvrt@ap 0049                               vfpfcnvrt@cp 004C  
                             vfpfcnvrt@fp 0047                               _BAUDCONbits 0FB8  
                           __pidataCOMRAM 28C8                            __end_of_led_on 224E  
                   ?_lcd_send_4bit_enable 0045                            __end_of_memset 27D4  
          keypad_get_value@column_counter 004C                       start_initialization 2398  
             ??_lcd_4bit_send_data_string 004D                               __end_of_abs 2740  
           ?_gpio_pin_direction_intialize 003D          lcd_4bit_send_data_char_posit@lcd 0051  
        lcd_4bit_send_data_char_posit@ret 0055          lcd_4bit_send_data_char_posit@row 0052  
                        _motor_move_right 2804                     ??_lcd_4bit_initialize 004C  
     lcd_4bit_send_data_char_posit@colunm 0053               __end_of_lcd_set_cursor_4bit 2142  
                             vfprintf@fmt 0053                                  ??_led_on 0046  
                             __pdataBANK0 00C2                                  ?_ADC_ISR 003C  
                                ??_memset 0042                             ??_key_pad_get 0056  
                              memset@dest 003D              lcd_4bit_send_command@command 0049  
       spi_slave_mode_configuration@F3141 006D         spi_slave_mode_configuration@F3143 006C  
       spi_slave_mode_configuration@F3145 006B         spi_slave_mode_configuration@F3139 006E  
                                ?_RB4_ISR 003C                                  ?_RB5_ISR 003C  
                                ?_RB6_ISR 003C                                  ?_RB7_ISR 003C  
                             __pbssCOMRAM 0001                             __pcstackBANK0 00F3  
                  _INT0_InterruptHandeler 001D                      __end_of_MSSP_Spi_ISR 2918  
                       _TIMER0_INTERRUPPT 00B0           gpio_pin_direction_intialize@ret 0043  
                          _app_initialize 2740                             _Wait_to_Cycle 28D8  
               _lcd_4bit_send_data_string 2510             __end_of_I2C_BUS_COLLISION_ISR 292C  
                               __pintcode 0008                                  ?___awdiv 003D  
                                ?___awmod 003D                    ??_lcd_send_4bit_enable 0046  
               gpio_pin_write_logic@logic 003E                 _RB4_InterruptHandeler_Low 0015  
                             __smallconst 1000                  gpio_pin_intialize@_pin_t 0045  
                                _CCP1_ISR 2934                                  _CCP2_ISR 2930  
               _RB7_InterruptHandeler_Low 0009                       __end_of_key_pad_get 1DE4  
                                ?_sprintf 0056                        _gpio_pin_intialize 23FA  
                   EEPROM_Read_Data@S_Add 003D                _RB6_InterruptHandeler_High 000F  
                  __end_of_app_initialize 2772            ??_gpio_pin_direction_intialize 003E  
                                _INT0_ISR 2920                                  _INT1_ISR 291C  
                                _INT2_ISR 2918                                  _RB4_Flag 0075  
                                _RB5_Flag 0074                                  _RB6_Flag 0073  
                   EEPROM_Read_Data@ddata 003F                                  _RB7_Flag 0072  
                     motor_initialize@ret 0049   _EUSART_OVERRUN_ERROR_INTERRUPT_HANDLERF 001F  
                     ?_gpio_pin_intialize 0045                  __end_of_InterruptManager 1462  
                          ?_Wait_to_Cycle 003C                                  _PIE1bits 0F9D  
                                _PIE2bits 0FA0       gpio_pin_direction_intialize@__pin_t 003D  
                                i2u101_40 28C2                                  i2u101_41 28BE  
                                i2u102_40 28A8                                  i2u102_41 28A4  
                                i2u103_40 288E                                  i2u103_41 288A  
                                i2u104_40 2874                                  i2u104_41 2870  
           __end_of_lcd_4bit_send_command 2510                                  i2u600_40 13DA  
                                i2u600_41 13D6                                  i2u601_40 13EC  
                                i2u601_41 13E8                                  _PIR1bits 0F9E  
                                i2u602_40 13FA                                  i2u602_41 13F6  
                                i2u603_40 140C                                  i2u603_41 1408  
                                _PIR2bits 0FA1                                  i2u604_40 141A  
                                i2u604_41 1416                                  i2u605_40 142C  
                                i2u605_41 1428                                  i2u606_40 143A  
                                i2u550_40 109A                                  i2u606_41 1436  
                                i2u550_41 1096                                  i2u607_40 144C  
                                i2u551_40 10AC                                  i2u607_41 1448  
                                i2u551_41 10A8                                  i2u608_40 145A  
                                i2u560_40 113C                                  i2u552_40 10BA  
                                i2u608_41 1456                                  i2u560_41 1138  
                                i2u552_41 10B6                                  i2u561_40 1154  
                                i2u553_40 10CC                                  i2u561_41 1150  
                                i2u553_41 10C8                                  i2u570_40 11EA  
                                i2u562_40 1162                                  i2u554_40 10DA  
                                i2u570_41 11E6                                  i2u562_41 115E  
                                i2u554_41 10D6                                  i2u571_40 11F8  
                                i2u563_40 1170                                  i2u555_40 10E8  
                                i2u547_40 106C                                  i2u571_41 11F4  
                                i2u563_41 116C                                  i2u555_41 10E4  
                                i2u547_41 1068                                  i2u580_40 1290  
                                i2u572_40 1208                                  i2u564_40 1180  
                                i2u556_40 10F8                                  i2u548_40 107A  
                                i2u580_41 128C                                  i2u572_41 1204  
                                i2u564_41 117C                                  i2u556_41 10F4  
                                i2u548_41 1076                                  i2u581_40 12A8  
                                i2u573_40 1220                                  i2u565_40 1198  
                                i2u557_40 1110                                  i2u549_40 108C  
                                i2u581_41 12A4                                  i2u573_41 121C  
                                i2u565_41 1194                                  i2u557_41 110C  
                                i2u549_41 1088                                  i2u590_40 133A  
                                i2u582_40 12B6                                  i2u574_40 122E  
                                i2u566_40 11A6                                  i2u558_40 111E  
                                i2u590_41 1336                                  i2u582_41 12B2  
                                i2u574_41 122A                                  i2u566_41 11A2  
                                i2u558_41 111A                                  i2u591_40 134C  
                                i2u583_40 12C4                                  i2u575_40 123C  
                                i2u567_40 11B4                                  i2u559_40 112C  
                                i2u591_41 1348                                  i2u583_41 12C0  
                                i2u575_41 1238                                  i2u567_41 11B0  
                                i2u559_41 1128                                  i2u592_40 135A  
                                i2u584_40 12D4                                  i2u576_40 124C  
                                i2u568_40 11C4                                  i2u592_41 1356  
                                i2u584_41 12D0                                  i2u576_41 1248  
                                i2u568_41 11C0                                  i2u593_40 136C  
                                i2u585_40 12EC                                  i2u577_40 1264  
                                i2u569_40 11DC                                  i2u593_41 1368  
                                i2u585_41 12E8                                  i2u577_41 1260  
                                i2u569_41 11D8                                  i2u594_40 137A  
                                i2u586_40 12FA                                  i2u578_40 1272  
                                i2u594_41 1376                                  i2u586_41 12F6  
                                i2u578_41 126E                                  i2u595_40 138C  
                                i2u587_40 130C                                  i2u579_40 1280  
                                i2u595_41 1388                                  i2u587_41 1308  
                                i2u579_41 127C                                  i2u596_40 139A  
                                i2u588_40 131A                                  i2u596_41 1396  
                                i2u588_41 1316                                  i2u597_40 13AC  
                                i2u589_40 132C                                  i2u597_41 13A8  
                                i2u589_41 1328                                  i2u598_40 13BA  
                                i2u598_41 13B6                                  i2u599_40 13CC  
                                i2u599_41 13C8                _TIMER1_INTERRUPPT_HANDLERF 00AE  
                       RB4_ISR@RB4_source 003C                                  _TMR0_ISR 2900  
                                _TMR1_ISR 28F4                                  _TMR2_ISR 290C  
                                _TMR3_ISR 28E8                                 _vfpfcnvrt 1740  
                              _ADCON0bits 0FC2                                _ADCON1bits 0FC1  
                              _ADCON2bits 0FC0                      ??_gpio_pin_intialize 0046  
                ?_convert_uint8_to_string 0067                  __end_of_motor_initialize 2804  
                               led_on@led 0045                                 led_on@obj 0048  
                               led_on@ret 0047                                vfpfcnvrt@c 0051  
                 gpio_pin_write_logic@ret 0044                               _INTCON2bits 0FF1  
                             _INTCON3bits 0FF0                                 copy_data0 23AC  
                               copy_data1 23CC                  ?_lcd_4bit_send_data_char 0048  
                       _keypad_initialize 232E                           ?_app_initialize 003C  
                      ?_keypad_initialize 0048                    gpio_pin_read_logic@ret 0043  
                              _EECON1bits 0FA6                                  __Hrparam 0000  
                              vfprintf@ap 0054                                  __Lrparam 0000  
                              vfprintf@fp 0052                       ??_keypad_initialize 0049  
             _MSSP_SPI_INTERRUPT_HANDLERF 00B2                  __end_of_motor_move_right 2832  
                              ?_vfpfcnvrt 0047                               _key_pad_get 1D0C  
                 _CCP2_INTERRUPT_HANDLERF 0029                    _I2C_INTERRUPT_HANDLERF 00B4  
                           _preload_value 0005               __end_of_gpio_pin_read_logic 20A6  
                              sprintf@fmt 0057                         RB6_ISR@RB6_source 003C  
               __end_of_keypad_initialize 2398                                  __ptext10 1B38  
                                __ptext11 2002                                  __ptext20 1DE4  
                                __ptext12 256A                                  __ptext21 27A4  
                                __ptext13 26D8                                  __ptext30 23FA  
                                __ptext22 2740                                  __ptext14 25AC  
                                __ptext31 1A28                                  __ptext23 27D4  
                                __ptext15 1740                                  __ptext40 2900  
                                __ptext32 1902                                  __ptext24 224E  
                                __ptext16 1F58                                  __ptext41 2860  
                                __ptext33 2668                                  __ptext25 1C26  
                                __ptext17 293C                                  __ptext50 2928  
                                __ptext42 287A                                  __ptext34 28D8  
                                __ptext26 24B4                                  __ptext18 270C  
                                __ptext51 292C                                  __ptext43 2894  
                                __ptext35 26A2                                  __ptext27 25EC  
                                __ptext19 1EA8                                  __ptext52 293E  
                                __ptext44 28AE                                  __ptext28 22C0  
                                __ptext53 2930                                  __ptext45 2914  
                                __ptext37 28E8                                  __ptext29 232E  
                                __ptext54 2934                                  __ptext46 2918  
                                __ptext38 290C                                  __ptext55 2938  
                                __ptext47 291C                                  __ptext39 28F4  
                                __ptext48 2920                                  __ptext49 2924  
            _EUSART_RX_INTERRUPT_HANDLERF 0023                           ??_Wait_to_Cycle 003D  
                                _keypad_1 00E5                            relay_off@F3062 0033  
                        _keypad_get_value 1B38        spi_master_mode_configuration@F3131 0071  
      spi_master_mode_configuration@F3133 0070        spi_master_mode_configuration@F3135 006F  
                                isa$xinst 0000              lcd_4bit_initialize@l_counter 004D  
                                int$flags 007B                                  _vfprintf 25AC  
               gpio_pin_read_logic@_pin_t 003D                              _MSSP_Spi_ISR 2914  
                   motor_initialize@motor 0048                     __end_of_keypad_values 1011  
                              _INTCONbits 0FF2               __end_of_lcd_4bit_initialize 1D0C  
            ??_lcd_send_4bit_command_data 0047              __end_of_gpio_pin_write_logic 1B38  
                            _preload_vall 0001                              _num_of_incor 003A  
                    motor_move_left@motor 0045                                  intlevel2 0000  
                               sprintf@ap 005A                          _EEPROM_Read_Data 26A2  
           lcd_send_4bit_command_data@lcd 0045             lcd_send_4bit_command_data@ret 0047  
                             ??_vfpfcnvrt 004A                gpio_pin_write_logic@_pin_t 003D  
                    relay_initalize@F3052 0035                               _preload_val 0032  
                                sprintf@f 005B                                  sprintf@s 0056  
         ??_lcd_4bit_send_data_char_posit 0055         __end_of_lcd_4bit_send_data_string 256A  
                          _port_registers 00CC                     motor_move_right@motor 0045  
                       _EEPROM_Write_Data 2668                               _SSPCON1bits 0FC6  
                             _SSPCON2bits 0FC5                    _INT1_InterruptHandeler 001B  
                      ?_EEPROM_Write_Data 003D                       ??_EEPROM_Write_Data 0040  
                       ?_InterruptManager 003C                    lcd_4bit_initialize@lcd 004B  
                  lcd_4bit_initialize@ret 004E  
